                        .module chengxu.c
                        .area text(rom, con, rel)
 0000                   .dbfile D:\Proteus仿真实例\ATMEGA16\个人总结AVR\跑马灯\icc\chengxu.c
 0000                   .dbfunc e delayms _delayms fV
 0000           ;              j -> R20,R21
 0000           ;              i -> R16,R17
                        .even
 0000           _delayms::
 0000 0E940000          xcall push_gset1
 0004                   .dbline -1
 0004                   .dbline 6
 0004           ; #include <iom16v.h>
 0004           ; #define uchar unsigned char 
 0004           ; #define uint unsigned int
 0004           ; 
 0004           ; void delayms(uint i)
 0004           ; {
 0004                   .dbline 8
 0004           ; uint j;
 0004           ; for(;i!=0;i--)
 0004 0AC0              xjmp L5
 0006           L2:
 0006                   .dbline 9
 0006           ; {
 0006                   .dbline 10
 0006 40E4              ldi R20,8000
 0008 5FE1              ldi R21,31
 000A 02C0              xjmp L9
 000C           L6:
 000C                   .dbline 10
 000C           L7:
 000C                   .dbline 10
 000C 4150              subi R20,1
 000E 5040              sbci R21,0
 0010           L9:
 0010                   .dbline 10
 0010 4030              cpi R20,0
 0012 4507              cpc R20,R21
 0014 D9F7              brne L6
 0016           X0:
 0016                   .dbline 11
 0016           L3:
 0016                   .dbline 8
 0016 0150              subi R16,1
 0018 1040              sbci R17,0
 001A           L5:
 001A                   .dbline 8
 001A 0030              cpi R16,0
 001C 0107              cpc R16,R17
 001E 99F7              brne L2
 0020           X1:
 0020                   .dbline -2
 0020           L1:
 0020 0E940000          xcall pop_gset1
 0024                   .dbline 0 ; func end
 0024 0895              ret
 0026                   .dbsym r j 20 i
 0026                   .dbsym r i 16 i
 0026                   .dbend
 0026                   .dbfunc e horse _horse fV
 0026           ;              i -> R16
                        .even
 0026           _horse::
 0026 0E940000          xcall push_gset1
 002A                   .dbline -1
 002A                   .dbline 15
 002A           ; for(j=8000;j!=0;j--);
 002A           ; }
 002A           ; }
 002A           ; 
 002A           ; void horse(uchar i)
 002A           ; {switch (i)
 002A                   .dbline 15
 002A 402F              mov R20,R16
 002C 5527              clr R21
 002E 4030              cpi R20,0
 0030 4507              cpc R20,R21
 0032 09F1              breq L14
 0034           X2:
 0034 4130              cpi R20,1
 0036 E0E0              ldi R30,0
 0038 5E07              cpc R21,R30
 003A 01F1              breq L15
 003C 4230              cpi R20,2
 003E E0E0              ldi R30,0
 0040 5E07              cpc R21,R30
 0042 F9F0              breq L16
 0044 4330              cpi R20,3
 0046 E0E0              ldi R30,0
 0048 5E07              cpc R21,R30
 004A F1F0              breq L17
 004C 4430              cpi R20,4
 004E E0E0              ldi R30,0
 0050 5E07              cpc R21,R30
 0052 E9F0              breq L18
 0054 4530              cpi R20,5
 0056 E0E0              ldi R30,0
 0058 5E07              cpc R21,R30
 005A E1F0              breq L19
 005C 4630              cpi R20,6
 005E E0E0              ldi R30,0
 0060 5E07              cpc R21,R30
 0062 D9F0              breq L20
 0064 4730              cpi R20,7
 0066 E0E0              ldi R30,0
 0068 5E07              cpc R21,R30
 006A D1F0              breq L21
 006C 4830              cpi R20,8
 006E E0E0              ldi R30,0
 0070 5E07              cpc R21,R30
 0072 C9F0              breq L22
 0074 1AC0              xjmp L12
 0076           X3:
 0076                   .dbline 16
 0076           ; {
 0076           L14:
 0076                   .dbline 17
 0076           ; case 0:PORTA=0X00;break;
 0076 2224              clr R2
 0078 2BBA              out 0x1b,R2
 007A                   .dbline 17
 007A 17C0              xjmp L12
 007C           L15:
 007C                   .dbline 18
 007C           ; case 1:PORTA=0X01;break;
 007C 81E0              ldi R24,1
 007E 8BBB              out 0x1b,R24
 0080                   .dbline 18
 0080 14C0              xjmp L12
 0082           L16:
 0082                   .dbline 19
 0082           ; case 2:PORTA=0X03;break;
 0082 83E0              ldi R24,3
 0084 8BBB              out 0x1b,R24
 0086                   .dbline 19
 0086 11C0              xjmp L12
 0088           L17:
 0088                   .dbline 20
 0088           ; case 3:PORTA=0X07;break;
 0088 87E0              ldi R24,7
 008A 8BBB              out 0x1b,R24
 008C                   .dbline 20
 008C 0EC0              xjmp L12
 008E           L18:
 008E                   .dbline 21
 008E           ; case 4:PORTA=0X0f;break;
 008E 8FE0              ldi R24,15
 0090 8BBB              out 0x1b,R24
 0092                   .dbline 21
 0092 0BC0              xjmp L12
 0094           L19:
 0094                   .dbline 22
 0094           ; case 5:PORTA=0X1f;break;
 0094 8FE1              ldi R24,31
 0096 8BBB              out 0x1b,R24
 0098                   .dbline 22
 0098 08C0              xjmp L12
 009A           L20:
 009A                   .dbline 23
 009A           ; case 6:PORTA=0X3f;break;
 009A 8FE3              ldi R24,63
 009C 8BBB              out 0x1b,R24
 009E                   .dbline 23
 009E 05C0              xjmp L12
 00A0           L21:
 00A0                   .dbline 24
 00A0           ; case 7:PORTA=0X7f;break;
 00A0 8FE7              ldi R24,127
 00A2 8BBB              out 0x1b,R24
 00A4                   .dbline 24
 00A4 02C0              xjmp L12
 00A6           L22:
 00A6                   .dbline 25
 00A6 8FEF              ldi R24,255
 00A8 8BBB              out 0x1b,R24
 00AA                   .dbline 25
 00AA                   .dbline 26
 00AA           L12:
 00AA                   .dbline -2
 00AA           L10:
 00AA 0E940000          xcall pop_gset1
 00AE                   .dbline 0 ; func end
 00AE 0895              ret
 00B0                   .dbsym r i 16 c
 00B0                   .dbend
 00B0                   .dbfunc e main _main fV
 00B0           ;              i -> R20
                        .even
 00B0           _main::
 00B0                   .dbline -1
 00B0                   .dbline 30
 00B0           ; case 8:PORTA=0Xff;break;
 00B0           ; default:break;
 00B0           ; }
 00B0           ; }
 00B0           ; void main(void)
 00B0           ; {
 00B0                   .dbline 32
 00B0           ; uchar i;
 00B0           ; DDRA=0XFF;
 00B0 8FEF              ldi R24,255
 00B2 8ABB              out 0x1a,R24
 00B4                   .dbline 33
 00B4           ; PORTA=0XFF;
 00B4 8BBB              out 0x1b,R24
 00B6                   .dbline 34
 00B6           ; PORTA=0X00;
 00B6 2224              clr R2
 00B8 2BBA              out 0x1b,R2
 00BA                   .dbline 35
 00BA           ; delayms(10);
 00BA 0AE0              ldi R16,10
 00BC 10E0              ldi R17,0
 00BE A0DF              xcall _delayms
 00C0 14C0              xjmp L25
 00C2           L24:
 00C2                   .dbline 37
 00C2           ; while(1)
 00C2           ; {
 00C2                   .dbline 38
 00C2           ; for(i=0;i<9;i++)
 00C2 4427              clr R20
 00C4 06C0              xjmp L30
 00C6           L27:
 00C6                   .dbline 39
 00C6                   .dbline 40
 00C6 042F              mov R16,R20
 00C8 AEDF              xcall _horse
 00CA                   .dbline 41
 00CA 0AE0              ldi R16,10
 00CC 10E0              ldi R17,0
 00CE 98DF              xcall _delayms
 00D0                   .dbline 42
 00D0           L28:
 00D0                   .dbline 38
 00D0 4395              inc R20
 00D2           L30:
 00D2                   .dbline 38
 00D2 4930              cpi R20,9
 00D4 C0F3              brlo L27
 00D6                   .dbline 43
 00D6           ; {
 00D6           ; horse(i);
 00D6           ; delayms(10);
 00D6           ; }
 00D6           ; for(i=7;i!=0;i--)
 00D6 47E0              ldi R20,7
 00D8 06C0              xjmp L34
 00DA           L31:
 00DA                   .dbline 44
 00DA                   .dbline 45
 00DA 042F              mov R16,R20
 00DC A4DF              xcall _horse
 00DE                   .dbline 46
 00DE 0AE0              ldi R16,10
 00E0 10E0              ldi R17,0
 00E2 8EDF              xcall _delayms
 00E4                   .dbline 47
 00E4           L32:
 00E4                   .dbline 43
 00E4 4A95              dec R20
 00E6           L34:
 00E6                   .dbline 43
 00E6 4423              tst R20
 00E8 C1F7              brne L31
 00EA                   .dbline 48
 00EA           L25:
 00EA                   .dbline 36
 00EA EBCF              xjmp L24
 00EC           X4:
 00EC                   .dbline -2
 00EC           L23:
 00EC                   .dbline 0 ; func end
 00EC 0895              ret
 00EE                   .dbsym r i 20 c
 00EE                   .dbend
