Sunplus u'nSP Assembler - Ver. 1.8.0
              Listing File Has Been Relocated
                            	// GCC for SUNPLUS u'nSP version 1.0.10
                            	// Command: D:\PROGRA~1\Sunplus\UNSPID~1\IDE180\cc1.exe D:\DOCUME~1\ÁõÐÂÑÕ\LOCALS~1\Temp\ccGIaaaa.i -fkeep-inline-functions -quiet -dumpbase main.c -gstabs -o .\Debug/main.asm
                            	// gcc2_compiled.:
                            	
0000C533                    	.code
                            	Ltext0:
00000000                    	.debug
00000000 2E 00 73 00        		.dw '.stabs "int:t1=r1;-32768;32767;",128,0,0,0',0x0d,0x0a
         74 00 61 00
         62 00 73 00
         20 00 22 00
         69 00 6E 00
         74 00 3A 00
         74 00 31 00
         3D 00 72 00
         31 00 3B 00
         2D 00 33 00
         32 00 37 00
         36 00 38 00
         3B 00 33 00
         32 00 37 00
         36 00 37 00
         3B 00 22 00
         2C 00 31 00
         32 00 38 00
         2C 00 30 00
         2C 00 30 00
         2C 00 30 00
         0D 00 0A 00
0000C533                    	.CODE
0000002C                    	.debug
0000002C 2E 00 73 00        		.dw '.stabs "char:t2=r2;0;127;",128,0,0,0',0x0d,0x0a
         74 00 61 00
         62 00 73 00
         20 00 22 00
         63 00 68 00
         61 00 72 00
         3A 00 74 00
         32 00 3D 00
         72 00 32 00
         3B 00 30 00
         3B 00 31 00
         32 00 37 00
         3B 00 22 00
         2C 00 31 00
         32 00 38 00
         2C 00 30 00
         2C 00 30 00
         2C 00 30 00
         0D 00 0A 00
0000C533                    	.CODE
00000052                    	.debug
00000052 2E 00 73 00        		.dw '.stabs "long int:t3=r3;-2147483648;2147483647;",128,0,0,0',0x0d,0x0a
         74 00 61 00
         62 00 73 00
         20 00 22 00
         6C 00 6F 00
         6E 00 67 00
         20 00 69 00
         6E 00 74 00
         3A 00 74 00
         33 00 3D 00
         72 00 33 00
         3B 00 2D 00
         32 00 31 00
         34 00 37 00
         34 00 38 00
         33 00 36 00
         34 00 38 00
         3B 00 32 00
         31 00 34 00
         37 00 34 00
         38 00 33 00
         36 00 34 00
         37 00 3B 00
         22 00 2C 00
         31 00 32 00
         38 00 2C 00
         30 00 2C 00
         30 00 2C 00
         30 00 0D 00
         0A 00      
0000C533                    	.CODE
0000008D                    	.debug
0000008D 2E 00 73 00        		.dw '.stabs "unsigned int:t4=r4;0;65535;",128,0,0,0',0x0d,0x0a
         74 00 61 00
         62 00 73 00
         20 00 22 00
         75 00 6E 00
         73 00 69 00
         67 00 6E 00
         65 00 64 00
         20 00 69 00
         6E 00 74 00
         3A 00 74 00
         34 00 3D 00
         72 00 34 00
         3B 00 30 00
         3B 00 36 00
         35 00 35 00
         33 00 35 00
         3B 00 22 00
         2C 00 31 00
         32 00 38 00
         2C 00 30 00
         2C 00 30 00
         2C 00 30 00
         0D 00 0A 00
0000C533                    	.CODE
000000BD                    	.debug
000000BD 2E 00 73 00        		.dw '.stabs "long unsigned int:t5=r5;0;4294967295;",128,0,0,0',0x0d,0x0a
         74 00 61 00
         62 00 73 00
         20 00 22 00
         6C 00 6F 00
         6E 00 67 00
         20 00 75 00
         6E 00 73 00
         69 00 67 00
         6E 00 65 00
         64 00 20 00
         69 00 6E 00
         74 00 3A 00
         74 00 35 00
         3D 00 72 00
         35 00 3B 00
         30 00 3B 00
         34 00 32 00
         39 00 34 00
         39 00 36 00
         37 00 32 00
         39 00 35 00
         3B 00 22 00
         2C 00 31 00
         32 00 38 00
         2C 00 30 00
         2C 00 30 00
         2C 00 30 00
         0D 00 0A 00
0000C533                    	.CODE
000000F7                    	.debug
000000F7 2E 00 73 00        		.dw '.stabs "long long int:t6=r6;-2147483648;2147483647;",128,0,0,0',0x0d,0x0a
         74 00 61 00
         62 00 73 00
         20 00 22 00
         6C 00 6F 00
         6E 00 67 00
         20 00 6C 00
         6F 00 6E 00
         67 00 20 00
         69 00 6E 00
         74 00 3A 00
         74 00 36 00
         3D 00 72 00
         36 00 3B 00
         2D 00 32 00
         31 00 34 00
         37 00 34 00
         38 00 33 00
         36 00 34 00
         38 00 3B 00
         32 00 31 00
         34 00 37 00
         34 00 38 00
         33 00 36 00
         34 00 37 00
         3B 00 22 00
         2C 00 31 00
         32 00 38 00
         2C 00 30 00
         2C 00 30 00
         2C 00 30 00
         0D 00 0A 00
0000C533                    	.CODE
00000137                    	.debug
00000137 2E 00 73 00        		.dw '.stabs "long long unsigned int:t7=r7;0;4294967295;",128,0,0,0',0x0d,0x0a
         74 00 61 00
         62 00 73 00
         20 00 22 00
         6C 00 6F 00
         6E 00 67 00
         20 00 6C 00
         6F 00 6E 00
         67 00 20 00
         75 00 6E 00
         73 00 69 00
         67 00 6E 00
         65 00 64 00
         20 00 69 00
         6E 00 74 00
         3A 00 74 00
         37 00 3D 00
         72 00 37 00
         3B 00 30 00
         3B 00 34 00
         32 00 39 00
         34 00 39 00
         36 00 37 00
         32 00 39 00
         35 00 3B 00
         22 00 2C 00
         31 00 32 00
         38 00 2C 00
         30 00 2C 00
         30 00 2C 00
         30 00 0D 00
         0A 00      
0000C533                    	.CODE
00000176                    	.debug
00000176 2E 00 73 00        		.dw '.stabs "short int:t8=r8;-32768;32767;",128,0,0,0',0x0d,0x0a
         74 00 61 00
         62 00 73 00
         20 00 22 00
         73 00 68 00
         6F 00 72 00
         74 00 20 00
         69 00 6E 00
         74 00 3A 00
         74 00 38 00
         3D 00 72 00
         38 00 3B 00
         2D 00 33 00
         32 00 37 00
         36 00 38 00
         3B 00 33 00
         32 00 37 00
         36 00 37 00
         3B 00 22 00
         2C 00 31 00
         32 00 38 00
         2C 00 30 00
         2C 00 30 00
         2C 00 30 00
         0D 00 0A 00
0000C533                    	.CODE
000001A8                    	.debug
000001A8 2E 00 73 00        		.dw '.stabs "short unsigned int:t9=r9;0;65535;",128,0,0,0',0x0d,0x0a
         74 00 61 00
         62 00 73 00
         20 00 22 00
         73 00 68 00
         6F 00 72 00
         74 00 20 00
         75 00 6E 00
         73 00 69 00
         67 00 6E 00
         65 00 64 00
         20 00 69 00
         6E 00 74 00
         3A 00 74 00
         39 00 3D 00
         72 00 39 00
         3B 00 30 00
         3B 00 36 00
         35 00 35 00
         33 00 35 00
         3B 00 22 00
         2C 00 31 00
         32 00 38 00
         2C 00 30 00
         2C 00 30 00
         2C 00 30 00
         0D 00 0A 00
0000C533                    	.CODE
000001DE                    	.debug
000001DE 2E 00 73 00        		.dw '.stabs "signed char:t10=r10;-32768;32767;",128,0,0,0',0x0d,0x0a
         74 00 61 00
         62 00 73 00
         20 00 22 00
         73 00 69 00
         67 00 6E 00
         65 00 64 00
         20 00 63 00
         68 00 61 00
         72 00 3A 00
         74 00 31 00
         30 00 3D 00
         72 00 31 00
         30 00 3B 00
         2D 00 33 00
         32 00 37 00
         36 00 38 00
         3B 00 33 00
         32 00 37 00
         36 00 37 00
         3B 00 22 00
         2C 00 31 00
         32 00 38 00
         2C 00 30 00
         2C 00 30 00
         2C 00 30 00
         0D 00 0A 00
0000C533                    	.CODE
00000214                    	.debug
00000214 2E 00 73 00        		.dw '.stabs "unsigned char:t11=r11;0;65535;",128,0,0,0',0x0d,0x0a
         74 00 61 00
         62 00 73 00
         20 00 22 00
         75 00 6E 00
         73 00 69 00
         67 00 6E 00
         65 00 64 00
         20 00 63 00
         68 00 61 00
         72 00 3A 00
         74 00 31 00
         31 00 3D 00
         72 00 31 00
         31 00 3B 00
         30 00 3B 00
         36 00 35 00
         35 00 33 00
         35 00 3B 00
         22 00 2C 00
         31 00 32 00
         38 00 2C 00
         30 00 2C 00
         30 00 2C 00
         30 00 0D 00
         0A 00      
0000C533                    	.CODE
00000247                    	.debug
00000247 2E 00 73 00        		.dw '.stabs "float:t12=r1;2;0;",128,0,0,0',0x0d,0x0a
         74 00 61 00
         62 00 73 00
         20 00 22 00
         66 00 6C 00
         6F 00 61 00
         74 00 3A 00
         74 00 31 00
         32 00 3D 00
         72 00 31 00
         3B 00 32 00
         3B 00 30 00
         3B 00 22 00
         2C 00 31 00
         32 00 38 00
         2C 00 30 00
         2C 00 30 00
         2C 00 30 00
         0D 00 0A 00
0000C533                    	.CODE
0000026D                    	.debug
0000026D 2E 00 73 00        		.dw '.stabs "double:t13=r1;2;0;",128,0,0,0',0x0d,0x0a
         74 00 61 00
         62 00 73 00
         20 00 22 00
         64 00 6F 00
         75 00 62 00
         6C 00 65 00
         3A 00 74 00
         31 00 33 00
         3D 00 72 00
         31 00 3B 00
         32 00 3B 00
         30 00 3B 00
         22 00 2C 00
         31 00 32 00
         38 00 2C 00
         30 00 2C 00
         30 00 2C 00
         30 00 0D 00
         0A 00      
0000C533                    	.CODE
00000294                    	.debug
00000294 2E 00 73 00        		.dw '.stabs "long double:t14=r1;2;0;",128,0,0,0',0x0d,0x0a
         74 00 61 00
         62 00 73 00
         20 00 22 00
         6C 00 6F 00
         6E 00 67 00
         20 00 64 00
         6F 00 75 00
         62 00 6C 00
         65 00 3A 00
         74 00 31 00
         34 00 3D 00
         72 00 31 00
         3B 00 32 00
         3B 00 30 00
         3B 00 22 00
         2C 00 31 00
         32 00 38 00
         2C 00 30 00
         2C 00 30 00
         2C 00 30 00
         0D 00 0A 00
0000C533                    	.CODE
000002C0                    	.debug
000002C0 2E 00 73 00        		.dw '.stabs "complex int:t15=s2real:1,0,16;imag:1,16,16;;",128,0,0,0',0x0d,0x0a
         74 00 61 00
         62 00 73 00
         20 00 22 00
         63 00 6F 00
         6D 00 70 00
         6C 00 65 00
         78 00 20 00
         69 00 6E 00
         74 00 3A 00
         74 00 31 00
         35 00 3D 00
         73 00 32 00
         72 00 65 00
         61 00 6C 00
         3A 00 31 00
         2C 00 30 00
         2C 00 31 00
         36 00 3B 00
         69 00 6D 00
         61 00 67 00
         3A 00 31 00
         2C 00 31 00
         36 00 2C 00
         31 00 36 00
         3B 00 3B 00
         22 00 2C 00
         31 00 32 00
         38 00 2C 00
         30 00 2C 00
         30 00 2C 00
         30 00 0D 00
         0A 00      
0000C533                    	.CODE
00000301                    	.debug
00000301 2E 00 73 00        		.dw '.stabs "complex float:t16=r16;2;0;",128,0,0,0',0x0d,0x0a
         74 00 61 00
         62 00 73 00
         20 00 22 00
         63 00 6F 00
         6D 00 70 00
         6C 00 65 00
         78 00 20 00
         66 00 6C 00
         6F 00 61 00
         74 00 3A 00
         74 00 31 00
         36 00 3D 00
         72 00 31 00
         36 00 3B 00
         32 00 3B 00
         30 00 3B 00
         22 00 2C 00
         31 00 32 00
         38 00 2C 00
         30 00 2C 00
         30 00 2C 00
         30 00 0D 00
         0A 00      
0000C533                    	.CODE
00000330                    	.debug
00000330 2E 00 73 00        		.dw '.stabs "complex double:t17=r17;2;0;",128,0,0,0',0x0d,0x0a
         74 00 61 00
         62 00 73 00
         20 00 22 00
         63 00 6F 00
         6D 00 70 00
         6C 00 65 00
         78 00 20 00
         64 00 6F 00
         75 00 62 00
         6C 00 65 00
         3A 00 74 00
         31 00 37 00
         3D 00 72 00
         31 00 37 00
         3B 00 32 00
         3B 00 30 00
         3B 00 22 00
         2C 00 31 00
         32 00 38 00
         2C 00 30 00
         2C 00 30 00
         2C 00 30 00
         0D 00 0A 00
0000C533                    	.CODE
00000360                    	.debug
00000360 2E 00 73 00        		.dw '.stabs "complex long double:t18=r18;2;0;",128,0,0,0',0x0d,0x0a
         74 00 61 00
         62 00 73 00
         20 00 22 00
         63 00 6F 00
         6D 00 70 00
         6C 00 65 00
         78 00 20 00
         6C 00 6F 00
         6E 00 67 00
         20 00 64 00
         6F 00 75 00
         62 00 6C 00
         65 00 3A 00
         74 00 31 00
         38 00 3D 00
         72 00 31 00
         38 00 3B 00
         32 00 3B 00
         30 00 3B 00
         22 00 2C 00
         31 00 32 00
         38 00 2C 00
         30 00 2C 00
         30 00 2C 00
         30 00 0D 00
         0A 00      
0000C533                    	.CODE
00000395                    	.debug
00000395 2E 00 73 00        		.dw '.stabs "void:t19=19",128,0,0,0',0x0d,0x0a
         74 00 61 00
         62 00 73 00
         20 00 22 00
         76 00 6F 00
         69 00 64 00
         3A 00 74 00
         31 00 39 00
         3D 00 31 00
         39 00 22 00
         2C 00 31 00
         32 00 38 00
         2C 00 30 00
         2C 00 30 00
         2C 00 30 00
         0D 00 0A 00
0000C533                    	.CODE
00008064                    	.text
                            	LC0:
00008064 49 00 20 00        		.dw 'I',' ','L','O','V','E',' ','Y','O','U','!',0
         4C 00 4F 00
         56 00 45 00
         20 00 59 00
         4F 00 55 00
         21 00 00 00
                            	LC1:
00008070 53 00 55 00        		.dw 'S','U','N','P','L','U','S',0
         4E 00 50 00
         4C 00 55 00
         53 00 00 00
                            	LC2:
00008078 61 00 00 00        		.dw 'a',0
0000C533                    	.code
000003B5                    	.debug
000003B5 2E 00 73 00        		.dw '.stabs "main:F1",36,0,0,',0,0,offset _main,seg _main,0x0d,0x0a
         74 00 61 00
         62 00 73 00
         20 00 22 00
         6D 00 61 00
         69 00 6E 00
         3A 00 46 00
         31 00 22 00
         2C 00 33 00
         36 00 2C 00
         30 00 2C 00
         30 00 2C 00
         00 00 00 00
         00 00 00 00
         0D 00 0A 00
0000C533                    	.CODE
                            	.public _main
                            	_main:	.proc
000003D3                    	.debug
000003D3 2E 00 73 00        		.dw '.stabn 0x44,0,6,',0,0
         74 00 61 00
         62 00 6E 00
         20 00 30 00
         78 00 34 00
         34 00 2C 00
         30 00 2C 00
         36 00 2C 00
         00 00 00 00
000003E5 00 00 00 00        		.dd LM1-_main
000003E7 0D 00 0A 00        		.dw 0x0d,0x0a
0000C533                    	.code
                            	LM1:
                            		// total=1, vars=1
                            		// frame_pointer_needed: 1
0000C533 88 DA              		push bp to [sp]
0000C534 41 20              		sp-=1
0000C535 08 0B 01 00        		bp=sp+1
                            	
0000C537 0D 03 04 00        		R1=BP+4
0000C539 C5 D2              		[BP]=R1	// QImode move
000003E9                    	.debug
000003E9 2E 00 73 00        		.dw '.stabn 0x44,0,7,',0,0
         74 00 61 00
         62 00 6E 00
         20 00 30 00
         78 00 34 00
         34 00 2C 00
         30 00 2C 00
         37 00 2C 00
         00 00 00 00
000003FB 07 00 00 00        		.dd LM2-_main
000003FD 0D 00 0A 00        		.dw 0x0d,0x0a
0000C53A                    	.code
                            	LM2:
                            	LBB2:
0000C53A 40 F0 D8 C7        		call _Init_irq5	// call with return value
000003FF                    	.debug
000003FF 2E 00 73 00        		.dw '.stabn 0x44,0,8,',0,0
         74 00 61 00
         62 00 6E 00
         20 00 30 00
         78 00 34 00
         34 00 2C 00
         30 00 2C 00
         38 00 2C 00
         00 00 00 00
00000411 09 00 00 00        		.dd LM3-_main
00000413 0D 00 0A 00        		.dw 0x0d,0x0a
0000C53C                    	.code
                            	LM3:
0000C53C 40 F0 B4 AE        		call _Init_sys	// call with return value
00000415                    	.debug
00000415 2E 00 73 00        		.dw '.stabn 0x44,0,9,',0,0
         74 00 61 00
         62 00 6E 00
         20 00 30 00
         78 00 34 00
         34 00 2C 00
         30 00 2C 00
         39 00 2C 00
         00 00 00 00
00000427 0B 00 00 00        		.dd LM4-_main
00000429 0D 00 0A 00        		.dw 0x0d,0x0a
0000C53E                    	.code
                            	LM4:
0000C53E 40 F0 0E B0        		call _FG_InitGraphic	// call with return value
0000042B                    	.debug
0000042B 2E 00 73 00        		.dw '.stabn 0x44,0,10,',0,0
         74 00 61 00
         62 00 6E 00
         20 00 30 00
         78 00 34 00
         34 00 2C 00
         30 00 2C 00
         31 00 30 00
         2C 00 00 00
         00 00      
0000043E 0D 00 00 00        		.dd LM5-_main
00000440 0D 00 0A 00        		.dw 0x0d,0x0a
0000C540                    	.code
                            	LM5:
0000C540 43 92              		R1=3	// QImode move
0000C541 C8 D2              		[SP--]=R1	// QImode move
0000C542 40 F0 8A B0        		call _FG_SetLineStyle	// call with return value
0000C544 41 00              		SP=SP+1
00000442                    	.debug
00000442 2E 00 73 00        		.dw '.stabn 0x44,0,11,',0,0
         74 00 61 00
         62 00 6E 00
         20 00 30 00
         78 00 34 00
         34 00 2C 00
         30 00 2C 00
         31 00 31 00
         2C 00 00 00
         00 00      
00000455 12 00 00 00        		.dd LM6-_main
00000457 0D 00 0A 00        		.dw 0x0d,0x0a
0000C545                    	.code
                            	LM6:
0000C545 4F 92              		R1=15	// QImode move
0000C546 C8 D2              		[SP--]=R1	// QImode move
0000C547 4F 92              		R1=15	// QImode move
0000C548 C8 D2              		[SP--]=R1	// QImode move
0000C549 5E 92              		R1=30	// QImode move
0000C54A C8 D2              		[SP--]=R1	// QImode move
0000C54B 7C 92              		R1=60	// QImode move
0000C54C C8 D2              		[SP--]=R1	// QImode move
0000C54D 40 F0 6A B7        		call _FG_Ellipse	// call with return value
0000C54F 44 00              		SP=SP+4
00000459                    	.debug
00000459 2E 00 73 00        		.dw '.stabn 0x44,0,12,',0,0
         74 00 61 00
         62 00 6E 00
         20 00 30 00
         78 00 34 00
         34 00 2C 00
         30 00 2C 00
         31 00 32 00
         2C 00 00 00
         00 00      
0000046C 1D 00 00 00        		.dd LM7-_main
0000046E 0D 00 0A 00        		.dw 0x0d,0x0a
0000C550                    	.code
                            	LM7:
0000C550 7C 92              		R1=60	// QImode move
0000C551 C8 D2              		[SP--]=R1	// QImode move
0000C552 09 93 64 00        		R1=100	// QImode move
0000C554 C8 D2              		[SP--]=R1	// QImode move
0000C555 43 92              		R1=3	// QImode move
0000C556 C8 D2              		[SP--]=R1	// QImode move
0000C557 09 93 64 80        		R1=LC0	// QImode move
0000C559 C8 D2              		[SP--]=R1	// QImode move
0000C55A 40 F0 C2 BB        		call _FG_PutStr	// call with return value
0000C55C 44 00              		SP=SP+4
00000470                    	.debug
00000470 2E 00 73 00        		.dw '.stabn 0x44,0,13,',0,0
         74 00 61 00
         62 00 6E 00
         20 00 30 00
         78 00 34 00
         34 00 2C 00
         30 00 2C 00
         31 00 33 00
         2C 00 00 00
         00 00      
00000483 2A 00 00 00        		.dd LM8-_main
00000485 0D 00 0A 00        		.dw 0x0d,0x0a
0000C55D                    	.code
                            	LM8:
0000C55D 54 92              		R1=20	// QImode move
0000C55E C8 D2              		[SP--]=R1	// QImode move
0000C55F 09 93 5A 00        		R1=90	// QImode move
0000C561 C8 D2              		[SP--]=R1	// QImode move
0000C562 43 92              		R1=3	// QImode move
0000C563 C8 D2              		[SP--]=R1	// QImode move
0000C564 09 93 70 80        		R1=LC1	// QImode move
0000C566 C8 D2              		[SP--]=R1	// QImode move
0000C567 40 F0 C2 BB        		call _FG_PutStr	// call with return value
0000C569 44 00              		SP=SP+4
00000487                    	.debug
00000487 2E 00 73 00        		.dw '.stabn 0x44,0,14,',0,0
         74 00 61 00
         62 00 6E 00
         20 00 30 00
         78 00 34 00
         34 00 2C 00
         30 00 2C 00
         31 00 34 00
         2C 00 00 00
         00 00      
0000049A 37 00 00 00        		.dd LM9-_main
0000049C 0D 00 0A 00        		.dw 0x0d,0x0a
0000C56A                    	.code
                            	LM9:
0000C56A 40 F0 DF C7        		call _F_Delay	// call with return value
0000049E                    	.debug
0000049E 2E 00 73 00        		.dw '.stabn 0x44,0,15,',0,0
         74 00 61 00
         62 00 6E 00
         20 00 30 00
         78 00 34 00
         34 00 2C 00
         30 00 2C 00
         31 00 35 00
         2C 00 00 00
         00 00      
000004B1 39 00 00 00        		.dd LM10-_main
000004B3 0D 00 0A 00        		.dw 0x0d,0x0a
0000C56C                    	.code
                            	LM10:
0000C56C 41 92              		R1=1	// QImode move
0000C56D C8 D2              		[SP--]=R1	// QImode move
0000C56E 40 F0 1C B0        		call _FG_ClearScreen	// call with return value
0000C570 41 00              		SP=SP+1
000004B5                    	.debug
000004B5 2E 00 73 00        		.dw '.stabn 0x44,0,16,',0,0
         74 00 61 00
         62 00 6E 00
         20 00 30 00
         78 00 34 00
         34 00 2C 00
         30 00 2C 00
         31 00 36 00
         2C 00 00 00
         00 00      
000004C8 3E 00 00 00        		.dd LM11-_main
000004CA 0D 00 0A 00        		.dw 0x0d,0x0a
0000C571                    	.code
                            	LM11:
0000C571 5E 92              		R1=30	// QImode move
0000C572 C8 D2              		[SP--]=R1	// QImode move
0000C573 5E 92              		R1=30	// QImode move
0000C574 C8 D2              		[SP--]=R1	// QImode move
0000C575 40 F0 59 BC        		call _FG_PutPixel	// call with return value
0000C577 42 00              		SP=SP+2
000004CC                    	.debug
000004CC 2E 00 73 00        		.dw '.stabn 0x44,0,17,',0,0
         74 00 61 00
         62 00 6E 00
         20 00 30 00
         78 00 34 00
         34 00 2C 00
         30 00 2C 00
         31 00 37 00
         2C 00 00 00
         00 00      
000004DF 45 00 00 00        		.dd LM12-_main
000004E1 0D 00 0A 00        		.dw 0x0d,0x0a
0000C578                    	.code
                            	LM12:
0000C578 40 92              		R1=0	// QImode move
0000C579 C8 D2              		[SP--]=R1	// QImode move
0000C57A 40 F0 1C B0        		call _FG_ClearScreen	// call with return value
0000C57C 41 00              		SP=SP+1
000004E3                    	.debug
000004E3 2E 00 73 00        		.dw '.stabn 0x44,0,18,',0,0
         74 00 61 00
         62 00 6E 00
         20 00 30 00
         78 00 34 00
         34 00 2C 00
         30 00 2C 00
         31 00 38 00
         2C 00 00 00
         00 00      
000004F6 4A 00 00 00        		.dd LM13-_main
000004F8 0D 00 0A 00        		.dw 0x0d,0x0a
0000C57D                    	.code
                            	LM13:
0000C57D 5E 92              		R1=30	// QImode move
0000C57E C8 D2              		[SP--]=R1	// QImode move
0000C57F 5E 92              		R1=30	// QImode move
0000C580 C8 D2              		[SP--]=R1	// QImode move
0000C581 40 F0 59 BC        		call _FG_PutPixel	// call with return value
0000C583 42 00              		SP=SP+2
000004FA                    	.debug
000004FA 2E 00 73 00        		.dw '.stabn 0x44,0,19,',0,0
         74 00 61 00
         62 00 6E 00
         20 00 30 00
         78 00 34 00
         34 00 2C 00
         30 00 2C 00
         31 00 39 00
         2C 00 00 00
         00 00      
0000050D 51 00 00 00        		.dd LM14-_main
0000050F 0D 00 0A 00        		.dw 0x0d,0x0a
0000C584                    	.code
                            	LM14:
0000C584 40 F0 DF C7        		call _F_Delay	// call with return value
00000511                    	.debug
00000511 2E 00 73 00        		.dw '.stabn 0x44,0,20,',0,0
         74 00 61 00
         62 00 6E 00
         20 00 30 00
         78 00 34 00
         34 00 2C 00
         30 00 2C 00
         32 00 30 00
         2C 00 00 00
         00 00      
00000524 53 00 00 00        		.dd LM15-_main
00000526 0D 00 0A 00        		.dw 0x0d,0x0a
0000C586                    	.code
                            	LM15:
0000C586 41 92              		R1=1	// QImode move
0000C587 C8 D2              		[SP--]=R1	// QImode move
0000C588 40 F0 1C B0        		call _FG_ClearScreen	// call with return value
0000C58A 41 00              		SP=SP+1
00000528                    	.debug
00000528 2E 00 73 00        		.dw '.stabn 0x44,0,21,',0,0
         74 00 61 00
         62 00 6E 00
         20 00 30 00
         78 00 34 00
         34 00 2C 00
         30 00 2C 00
         32 00 31 00
         2C 00 00 00
         00 00      
0000053B 58 00 00 00        		.dd LM16-_main
0000053D 0D 00 0A 00        		.dw 0x0d,0x0a
0000C58B                    	.code
                            	LM16:
0000C58B 41 92              		R1=1	// QImode move
0000C58C C8 D2              		[SP--]=R1	// QImode move
0000C58D 5E 92              		R1=30	// QImode move
0000C58E C8 D2              		[SP--]=R1	// QImode move
0000C58F 5E 92              		R1=30	// QImode move
0000C590 C8 D2              		[SP--]=R1	// QImode move
0000C591 40 F0 59 BC        		call _FG_PutPixel	// call with return value
0000C593 43 00              		SP=SP+3
0000053F                    	.debug
0000053F 2E 00 73 00        		.dw '.stabn 0x44,0,22,',0,0
         74 00 61 00
         62 00 6E 00
         20 00 30 00
         78 00 34 00
         34 00 2C 00
         30 00 2C 00
         32 00 32 00
         2C 00 00 00
         00 00      
00000552 61 00 00 00        		.dd LM17-_main
00000554 0D 00 0A 00        		.dw 0x0d,0x0a
0000C594                    	.code
                            	LM17:
0000C594 40 92              		R1=0	// QImode move
0000C595 C8 D2              		[SP--]=R1	// QImode move
0000C596 40 F0 1C B0        		call _FG_ClearScreen	// call with return value
0000C598 41 00              		SP=SP+1
00000556                    	.debug
00000556 2E 00 73 00        		.dw '.stabn 0x44,0,23,',0,0
         74 00 61 00
         62 00 6E 00
         20 00 30 00
         78 00 34 00
         34 00 2C 00
         30 00 2C 00
         32 00 33 00
         2C 00 00 00
         00 00      
00000569 66 00 00 00        		.dd LM18-_main
0000056B 0D 00 0A 00        		.dw 0x0d,0x0a
0000C599                    	.code
                            	LM18:
0000C599 41 92              		R1=1	// QImode move
0000C59A C8 D2              		[SP--]=R1	// QImode move
0000C59B 5E 92              		R1=30	// QImode move
0000C59C C8 D2              		[SP--]=R1	// QImode move
0000C59D 5E 92              		R1=30	// QImode move
0000C59E C8 D2              		[SP--]=R1	// QImode move
0000C59F 40 F0 59 BC        		call _FG_PutPixel	// call with return value
0000C5A1 43 00              		SP=SP+3
0000056D                    	.debug
0000056D 2E 00 73 00        		.dw '.stabn 0x44,0,24,',0,0
         74 00 61 00
         62 00 6E 00
         20 00 30 00
         78 00 34 00
         34 00 2C 00
         30 00 2C 00
         32 00 34 00
         2C 00 00 00
         00 00      
00000580 6F 00 00 00        		.dd LM19-_main
00000582 0D 00 0A 00        		.dw 0x0d,0x0a
0000C5A2                    	.code
                            	LM19:
0000C5A2 41 92              		R1=1	// QImode move
0000C5A3 C8 D2              		[SP--]=R1	// QImode move
0000C5A4 40 F0 1C B0        		call _FG_ClearScreen	// call with return value
0000C5A6 41 00              		SP=SP+1
00000584                    	.debug
00000584 2E 00 73 00        		.dw '.stabn 0x44,0,25,',0,0
         74 00 61 00
         62 00 6E 00
         20 00 30 00
         78 00 34 00
         34 00 2C 00
         30 00 2C 00
         32 00 35 00
         2C 00 00 00
         00 00      
00000597 74 00 00 00        		.dd LM20-_main
00000599 0D 00 0A 00        		.dw 0x0d,0x0a
0000C5A7                    	.code
                            	LM20:
0000C5A7 42 92              		R1=2	// QImode move
0000C5A8 C8 D2              		[SP--]=R1	// QImode move
0000C5A9 5E 92              		R1=30	// QImode move
0000C5AA C8 D2              		[SP--]=R1	// QImode move
0000C5AB 5E 92              		R1=30	// QImode move
0000C5AC C8 D2              		[SP--]=R1	// QImode move
0000C5AD 40 F0 59 BC        		call _FG_PutPixel	// call with return value
0000C5AF 43 00              		SP=SP+3
0000059B                    	.debug
0000059B 2E 00 73 00        		.dw '.stabn 0x44,0,26,',0,0
         74 00 61 00
         62 00 6E 00
         20 00 30 00
         78 00 34 00
         34 00 2C 00
         30 00 2C 00
         32 00 36 00
         2C 00 00 00
         00 00      
000005AE 7D 00 00 00        		.dd LM21-_main
000005B0 0D 00 0A 00        		.dw 0x0d,0x0a
0000C5B0                    	.code
                            	LM21:
0000C5B0 40 92              		R1=0	// QImode move
0000C5B1 C8 D2              		[SP--]=R1	// QImode move
0000C5B2 40 F0 1C B0        		call _FG_ClearScreen	// call with return value
0000C5B4 41 00              		SP=SP+1
000005B2                    	.debug
000005B2 2E 00 73 00        		.dw '.stabn 0x44,0,27,',0,0
         74 00 61 00
         62 00 6E 00
         20 00 30 00
         78 00 34 00
         34 00 2C 00
         30 00 2C 00
         32 00 37 00
         2C 00 00 00
         00 00      
000005C5 82 00 00 00        		.dd LM22-_main
000005C7 0D 00 0A 00        		.dw 0x0d,0x0a
0000C5B5                    	.code
                            	LM22:
0000C5B5 42 92              		R1=2	// QImode move
0000C5B6 C8 D2              		[SP--]=R1	// QImode move
0000C5B7 5E 92              		R1=30	// QImode move
0000C5B8 C8 D2              		[SP--]=R1	// QImode move
0000C5B9 5E 92              		R1=30	// QImode move
0000C5BA C8 D2              		[SP--]=R1	// QImode move
0000C5BB 40 F0 59 BC        		call _FG_PutPixel	// call with return value
0000C5BD 43 00              		SP=SP+3
000005C9                    	.debug
000005C9 2E 00 73 00        		.dw '.stabn 0x44,0,28,',0,0
         74 00 61 00
         62 00 6E 00
         20 00 30 00
         78 00 34 00
         34 00 2C 00
         30 00 2C 00
         32 00 38 00
         2C 00 00 00
         00 00      
000005DC 8B 00 00 00        		.dd LM23-_main
000005DE 0D 00 0A 00        		.dw 0x0d,0x0a
0000C5BE                    	.code
                            	LM23:
0000C5BE 40 92              		R1=0	// QImode move
0000C5BF C8 D2              		[SP--]=R1	// QImode move
0000C5C0 40 F0 8A B0        		call _FG_SetLineStyle	// call with return value
0000C5C2 41 00              		SP=SP+1
000005E0                    	.debug
000005E0 2E 00 73 00        		.dw '.stabn 0x44,0,29,',0,0
         74 00 61 00
         62 00 6E 00
         20 00 30 00
         78 00 34 00
         34 00 2C 00
         30 00 2C 00
         32 00 39 00
         2C 00 00 00
         00 00      
000005F3 90 00 00 00        		.dd LM24-_main
000005F5 0D 00 0A 00        		.dw 0x0d,0x0a
0000C5C3                    	.code
                            	LM24:
0000C5C3 5D 92              		R1=29	// QImode move
0000C5C4 C8 D2              		[SP--]=R1	// QImode move
0000C5C5 5E 92              		R1=30	// QImode move
0000C5C6 C8 D2              		[SP--]=R1	// QImode move
0000C5C7 40 F0 59 BC        		call _FG_PutPixel	// call with return value
0000C5C9 42 00              		SP=SP+2
000005F7                    	.debug
000005F7 2E 00 73 00        		.dw '.stabn 0x44,0,30,',0,0
         74 00 61 00
         62 00 6E 00
         20 00 30 00
         78 00 34 00
         34 00 2C 00
         30 00 2C 00
         33 00 30 00
         2C 00 00 00
         00 00      
0000060A 97 00 00 00        		.dd LM25-_main
0000060C 0D 00 0A 00        		.dw 0x0d,0x0a
0000C5CA                    	.code
                            	LM25:
0000C5CA 40 92              		R1=0	// QImode move
0000C5CB C8 D2              		[SP--]=R1	// QImode move
0000C5CC 40 F0 5D B0        		call _FG_SetBMPMode	// call with return value
0000C5CE 41 00              		SP=SP+1
0000060E                    	.debug
0000060E 2E 00 73 00        		.dw '.stabn 0x44,0,31,',0,0
         74 00 61 00
         62 00 6E 00
         20 00 30 00
         78 00 34 00
         34 00 2C 00
         30 00 2C 00
         33 00 31 00
         2C 00 00 00
         00 00      
00000621 9C 00 00 00        		.dd LM26-_main
00000623 0D 00 0A 00        		.dw 0x0d,0x0a
0000C5CF                    	.code
                            	LM26:
0000C5CF 41 92              		R1=1	// QImode move
0000C5D0 C8 D2              		[SP--]=R1	// QImode move
0000C5D1 40 F0 1C B0        		call _FG_ClearScreen	// call with return value
0000C5D3 41 00              		SP=SP+1
00000625                    	.debug
00000625 2E 00 73 00        		.dw '.stabn 0x44,0,32,',0,0
         74 00 61 00
         62 00 6E 00
         20 00 30 00
         78 00 34 00
         34 00 2C 00
         30 00 2C 00
         33 00 32 00
         2C 00 00 00
         00 00      
00000638 A1 00 00 00        		.dd LM27-_main
0000063A 0D 00 0A 00        		.dw 0x0d,0x0a
0000C5D4                    	.code
                            	LM27:
0000C5D4 40 F0 DF C7        		call _F_Delay	// call with return value
0000063C                    	.debug
0000063C 2E 00 73 00        		.dw '.stabn 0x44,0,33,',0,0
         74 00 61 00
         62 00 6E 00
         20 00 30 00
         78 00 34 00
         34 00 2C 00
         30 00 2C 00
         33 00 33 00
         2C 00 00 00
         00 00      
0000064F A3 00 00 00        		.dd LM28-_main
00000651 0D 00 0A 00        		.dw 0x0d,0x0a
0000C5D6                    	.code
                            	LM28:
0000C5D6 09 93 40 00        		R1=64	// QImode move
0000C5D8 C8 D2              		[SP--]=R1	// QImode move
0000C5D9 09 93 7F 00        		R1=127	// QImode move
0000C5DB C8 D2              		[SP--]=R1	// QImode move
0000C5DC 09 93 20 C0        		R1=_mode2	// QImode move
0000C5DE C8 D2              		[SP--]=R1	// QImode move
0000C5DF 40 F0 55 B1        		call _FG_PutBitmap	// call with return value
0000C5E1 43 00              		SP=SP+3
00000653                    	.debug
00000653 2E 00 73 00        		.dw '.stabn 0x44,0,34,',0,0
         74 00 61 00
         62 00 6E 00
         20 00 30 00
         78 00 34 00
         34 00 2C 00
         30 00 2C 00
         33 00 34 00
         2C 00 00 00
         00 00      
00000666 AF 00 00 00        		.dd LM29-_main
00000668 0D 00 0A 00        		.dw 0x0d,0x0a
0000C5E2                    	.code
                            	LM29:
0000C5E2 40 92              		R1=0	// QImode move
0000C5E3 C8 D2              		[SP--]=R1	// QImode move
0000C5E4 40 F0 1C B0        		call _FG_ClearScreen	// call with return value
0000C5E6 41 00              		SP=SP+1
0000066A                    	.debug
0000066A 2E 00 73 00        		.dw '.stabn 0x44,0,35,',0,0
         74 00 61 00
         62 00 6E 00
         20 00 30 00
         78 00 34 00
         34 00 2C 00
         30 00 2C 00
         33 00 35 00
         2C 00 00 00
         00 00      
0000067D B4 00 00 00        		.dd LM30-_main
0000067F 0D 00 0A 00        		.dw 0x0d,0x0a
0000C5E7                    	.code
                            	LM30:
0000C5E7 09 93 40 00        		R1=64	// QImode move
0000C5E9 C8 D2              		[SP--]=R1	// QImode move
0000C5EA 09 93 7F 00        		R1=127	// QImode move
0000C5EC C8 D2              		[SP--]=R1	// QImode move
0000C5ED 09 93 20 C0        		R1=_mode2	// QImode move
0000C5EF C8 D2              		[SP--]=R1	// QImode move
0000C5F0 40 F0 55 B1        		call _FG_PutBitmap	// call with return value
0000C5F2 43 00              		SP=SP+3
00000681                    	.debug
00000681 2E 00 73 00        		.dw '.stabn 0x44,0,36,',0,0
         74 00 61 00
         62 00 6E 00
         20 00 30 00
         78 00 34 00
         34 00 2C 00
         30 00 2C 00
         33 00 36 00
         2C 00 00 00
         00 00      
00000694 C0 00 00 00        		.dd LM31-_main
00000696 0D 00 0A 00        		.dw 0x0d,0x0a
0000C5F3                    	.code
                            	LM31:
0000C5F3 41 92              		R1=1	// QImode move
0000C5F4 C8 D2              		[SP--]=R1	// QImode move
0000C5F5 40 F0 5D B0        		call _FG_SetBMPMode	// call with return value
0000C5F7 41 00              		SP=SP+1
00000698                    	.debug
00000698 2E 00 73 00        		.dw '.stabn 0x44,0,37,',0,0
         74 00 61 00
         62 00 6E 00
         20 00 30 00
         78 00 34 00
         34 00 2C 00
         30 00 2C 00
         33 00 37 00
         2C 00 00 00
         00 00      
000006AB C5 00 00 00        		.dd LM32-_main
000006AD 0D 00 0A 00        		.dw 0x0d,0x0a
0000C5F8                    	.code
                            	LM32:
0000C5F8 41 92              		R1=1	// QImode move
0000C5F9 C8 D2              		[SP--]=R1	// QImode move
0000C5FA 40 F0 1C B0        		call _FG_ClearScreen	// call with return value
0000C5FC 41 00              		SP=SP+1
000006AF                    	.debug
000006AF 2E 00 73 00        		.dw '.stabn 0x44,0,38,',0,0
         74 00 61 00
         62 00 6E 00
         20 00 30 00
         78 00 34 00
         34 00 2C 00
         30 00 2C 00
         33 00 38 00
         2C 00 00 00
         00 00      
000006C2 CA 00 00 00        		.dd LM33-_main
000006C4 0D 00 0A 00        		.dw 0x0d,0x0a
0000C5FD                    	.code
                            	LM33:
0000C5FD 09 93 40 00        		R1=64	// QImode move
0000C5FF C8 D2              		[SP--]=R1	// QImode move
0000C600 09 93 7F 00        		R1=127	// QImode move
0000C602 C8 D2              		[SP--]=R1	// QImode move
0000C603 09 93 20 C0        		R1=_mode2	// QImode move
0000C605 C8 D2              		[SP--]=R1	// QImode move
0000C606 40 F0 55 B1        		call _FG_PutBitmap	// call with return value
0000C608 43 00              		SP=SP+3
000006C6                    	.debug
000006C6 2E 00 73 00        		.dw '.stabn 0x44,0,39,',0,0
         74 00 61 00
         62 00 6E 00
         20 00 30 00
         78 00 34 00
         34 00 2C 00
         30 00 2C 00
         33 00 39 00
         2C 00 00 00
         00 00      
000006D9 D6 00 00 00        		.dd LM34-_main
000006DB 0D 00 0A 00        		.dw 0x0d,0x0a
0000C609                    	.code
                            	LM34:
0000C609 40 92              		R1=0	// QImode move
0000C60A C8 D2              		[SP--]=R1	// QImode move
0000C60B 40 F0 1C B0        		call _FG_ClearScreen	// call with return value
0000C60D 41 00              		SP=SP+1
000006DD                    	.debug
000006DD 2E 00 73 00        		.dw '.stabn 0x44,0,40,',0,0
         74 00 61 00
         62 00 6E 00
         20 00 30 00
         78 00 34 00
         34 00 2C 00
         30 00 2C 00
         34 00 30 00
         2C 00 00 00
         00 00      
000006F0 DB 00 00 00        		.dd LM35-_main
000006F2 0D 00 0A 00        		.dw 0x0d,0x0a
0000C60E                    	.code
                            	LM35:
0000C60E 09 93 40 00        		R1=64	// QImode move
0000C610 C8 D2              		[SP--]=R1	// QImode move
0000C611 09 93 7F 00        		R1=127	// QImode move
0000C613 C8 D2              		[SP--]=R1	// QImode move
0000C614 09 93 20 C0        		R1=_mode2	// QImode move
0000C616 C8 D2              		[SP--]=R1	// QImode move
0000C617 40 F0 55 B1        		call _FG_PutBitmap	// call with return value
0000C619 43 00              		SP=SP+3
000006F4                    	.debug
000006F4 2E 00 73 00        		.dw '.stabn 0x44,0,41,',0,0
         74 00 61 00
         62 00 6E 00
         20 00 30 00
         78 00 34 00
         34 00 2C 00
         30 00 2C 00
         34 00 31 00
         2C 00 00 00
         00 00      
00000707 E7 00 00 00        		.dd LM36-_main
00000709 0D 00 0A 00        		.dw 0x0d,0x0a
0000C61A                    	.code
                            	LM36:
0000C61A 42 92              		R1=2	// QImode move
0000C61B C8 D2              		[SP--]=R1	// QImode move
0000C61C 40 F0 5D B0        		call _FG_SetBMPMode	// call with return value
0000C61E 41 00              		SP=SP+1
0000070B                    	.debug
0000070B 2E 00 73 00        		.dw '.stabn 0x44,0,42,',0,0
         74 00 61 00
         62 00 6E 00
         20 00 30 00
         78 00 34 00
         34 00 2C 00
         30 00 2C 00
         34 00 32 00
         2C 00 00 00
         00 00      
0000071E EC 00 00 00        		.dd LM37-_main
00000720 0D 00 0A 00        		.dw 0x0d,0x0a
0000C61F                    	.code
                            	LM37:
0000C61F 41 92              		R1=1	// QImode move
0000C620 C8 D2              		[SP--]=R1	// QImode move
0000C621 40 F0 1C B0        		call _FG_ClearScreen	// call with return value
0000C623 41 00              		SP=SP+1
00000722                    	.debug
00000722 2E 00 73 00        		.dw '.stabn 0x44,0,43,',0,0
         74 00 61 00
         62 00 6E 00
         20 00 30 00
         78 00 34 00
         34 00 2C 00
         30 00 2C 00
         34 00 33 00
         2C 00 00 00
         00 00      
00000735 F1 00 00 00        		.dd LM38-_main
00000737 0D 00 0A 00        		.dw 0x0d,0x0a
0000C624                    	.code
                            	LM38:
0000C624 09 93 40 00        		R1=64	// QImode move
0000C626 C8 D2              		[SP--]=R1	// QImode move
0000C627 09 93 7F 00        		R1=127	// QImode move
0000C629 C8 D2              		[SP--]=R1	// QImode move
0000C62A 09 93 20 C0        		R1=_mode2	// QImode move
0000C62C C8 D2              		[SP--]=R1	// QImode move
0000C62D 40 F0 55 B1        		call _FG_PutBitmap	// call with return value
0000C62F 43 00              		SP=SP+3
00000739                    	.debug
00000739 2E 00 73 00        		.dw '.stabn 0x44,0,44,',0,0
         74 00 61 00
         62 00 6E 00
         20 00 30 00
         78 00 34 00
         34 00 2C 00
         30 00 2C 00
         34 00 34 00
         2C 00 00 00
         00 00      
0000074C FD 00 00 00        		.dd LM39-_main
0000074E 0D 00 0A 00        		.dw 0x0d,0x0a
0000C630                    	.code
                            	LM39:
0000C630 40 92              		R1=0	// QImode move
0000C631 C8 D2              		[SP--]=R1	// QImode move
0000C632 40 F0 1C B0        		call _FG_ClearScreen	// call with return value
0000C634 41 00              		SP=SP+1
00000750                    	.debug
00000750 2E 00 73 00        		.dw '.stabn 0x44,0,45,',0,0
         74 00 61 00
         62 00 6E 00
         20 00 30 00
         78 00 34 00
         34 00 2C 00
         30 00 2C 00
         34 00 35 00
         2C 00 00 00
         00 00      
00000763 02 01 00 00        		.dd LM40-_main
00000765 0D 00 0A 00        		.dw 0x0d,0x0a
0000C635                    	.code
                            	LM40:
0000C635 09 93 40 00        		R1=64	// QImode move
0000C637 C8 D2              		[SP--]=R1	// QImode move
0000C638 09 93 7F 00        		R1=127	// QImode move
0000C63A C8 D2              		[SP--]=R1	// QImode move
0000C63B 09 93 20 C0        		R1=_mode2	// QImode move
0000C63D C8 D2              		[SP--]=R1	// QImode move
0000C63E 40 F0 55 B1        		call _FG_PutBitmap	// call with return value
0000C640 43 00              		SP=SP+3
00000767                    	.debug
00000767 2E 00 73 00        		.dw '.stabn 0x44,0,46,',0,0
         74 00 61 00
         62 00 6E 00
         20 00 30 00
         78 00 34 00
         34 00 2C 00
         30 00 2C 00
         34 00 36 00
         2C 00 00 00
         00 00      
0000077A 0E 01 00 00        		.dd LM41-_main
0000077C 0D 00 0A 00        		.dw 0x0d,0x0a
0000C641                    	.code
                            	LM41:
0000C641 41 92              		R1=1	// QImode move
0000C642 C8 D2              		[SP--]=R1	// QImode move
0000C643 40 F0 1C B0        		call _FG_ClearScreen	// call with return value
0000C645 41 00              		SP=SP+1
0000077E                    	.debug
0000077E 2E 00 73 00        		.dw '.stabn 0x44,0,47,',0,0
         74 00 61 00
         62 00 6E 00
         20 00 30 00
         78 00 34 00
         34 00 2C 00
         30 00 2C 00
         34 00 37 00
         2C 00 00 00
         00 00      
00000791 13 01 00 00        		.dd LM42-_main
00000793 0D 00 0A 00        		.dw 0x0d,0x0a
0000C646                    	.code
                            	LM42:
0000C646 40 F0 DF C7        		call _F_Delay	// call with return value
00000795                    	.debug
00000795 2E 00 73 00        		.dw '.stabn 0x44,0,48,',0,0
         74 00 61 00
         62 00 6E 00
         20 00 30 00
         78 00 34 00
         34 00 2C 00
         30 00 2C 00
         34 00 38 00
         2C 00 00 00
         00 00      
000007A8 15 01 00 00        		.dd LM43-_main
000007AA 0D 00 0A 00        		.dw 0x0d,0x0a
0000C648                    	.code
                            	LM43:
0000C648 40 92              		R1=0	// QImode move
0000C649 C8 D2              		[SP--]=R1	// QImode move
0000C64A 09 93 78 80        		R1=LC2	// QImode move
0000C64C C8 D2              		[SP--]=R1	// QImode move
0000C64D 40 F0 8A BC        		call _FG_GetCharHeight	// call with return value
0000C64F 42 00              		SP=SP+2
000007AC                    	.debug
000007AC 2E 00 73 00        		.dw '.stabn 0x44,0,49,',0,0
         74 00 61 00
         62 00 6E 00
         20 00 30 00
         78 00 34 00
         34 00 2C 00
         30 00 2C 00
         34 00 39 00
         2C 00 00 00
         00 00      
000007BF 1D 01 00 00        		.dd LM44-_main
000007C1 0D 00 0A 00        		.dw 0x0d,0x0a
0000C650                    	.code
                            	LM44:
0000C650 41 92              		R1=1	// QImode move
0000C651 C8 D2              		[SP--]=R1	// QImode move
0000C652 09 93 78 80        		R1=LC2	// QImode move
0000C654 C8 D2              		[SP--]=R1	// QImode move
0000C655 40 F0 8A BC        		call _FG_GetCharHeight	// call with return value
0000C657 42 00              		SP=SP+2
000007C3                    	.debug
000007C3 2E 00 73 00        		.dw '.stabn 0x44,0,50,',0,0
         74 00 61 00
         62 00 6E 00
         20 00 30 00
         78 00 34 00
         34 00 2C 00
         30 00 2C 00
         35 00 30 00
         2C 00 00 00
         00 00      
000007D6 25 01 00 00        		.dd LM45-_main
000007D8 0D 00 0A 00        		.dw 0x0d,0x0a
0000C658                    	.code
                            	LM45:
0000C658 42 92              		R1=2	// QImode move
0000C659 C8 D2              		[SP--]=R1	// QImode move
0000C65A 09 93 78 80        		R1=LC2	// QImode move
0000C65C C8 D2              		[SP--]=R1	// QImode move
0000C65D 40 F0 8A BC        		call _FG_GetCharHeight	// call with return value
0000C65F 42 00              		SP=SP+2
000007DA                    	.debug
000007DA 2E 00 73 00        		.dw '.stabn 0x44,0,51,',0,0
         74 00 61 00
         62 00 6E 00
         20 00 30 00
         78 00 34 00
         34 00 2C 00
         30 00 2C 00
         35 00 31 00
         2C 00 00 00
         00 00      
000007ED 2D 01 00 00        		.dd LM46-_main
000007EF 0D 00 0A 00        		.dw 0x0d,0x0a
0000C660                    	.code
                            	LM46:
0000C660 43 92              		R1=3	// QImode move
0000C661 C8 D2              		[SP--]=R1	// QImode move
0000C662 09 93 78 80        		R1=LC2	// QImode move
0000C664 C8 D2              		[SP--]=R1	// QImode move
0000C665 40 F0 8A BC        		call _FG_GetCharHeight	// call with return value
0000C667 42 00              		SP=SP+2
000007F1                    	.debug
000007F1 2E 00 73 00        		.dw '.stabn 0x44,0,52,',0,0
         74 00 61 00
         62 00 6E 00
         20 00 30 00
         78 00 34 00
         34 00 2C 00
         30 00 2C 00
         35 00 32 00
         2C 00 00 00
         00 00      
00000804 35 01 00 00        		.dd LM47-_main
00000806 0D 00 0A 00        		.dw 0x0d,0x0a
0000C668                    	.code
                            	LM47:
0000C668 44 92              		R1=4	// QImode move
0000C669 C8 D2              		[SP--]=R1	// QImode move
0000C66A 09 93 78 80        		R1=LC2	// QImode move
0000C66C C8 D2              		[SP--]=R1	// QImode move
0000C66D 40 F0 8A BC        		call _FG_GetCharHeight	// call with return value
0000C66F 42 00              		SP=SP+2
00000808                    	.debug
00000808 2E 00 73 00        		.dw '.stabn 0x44,0,53,',0,0
         74 00 61 00
         62 00 6E 00
         20 00 30 00
         78 00 34 00
         34 00 2C 00
         30 00 2C 00
         35 00 33 00
         2C 00 00 00
         00 00      
0000081B 3D 01 00 00        		.dd LM48-_main
0000081D 0D 00 0A 00        		.dw 0x0d,0x0a
0000C670                    	.code
                            	LM48:
0000C670 44 92              		R1=4	// QImode move
0000C671 C8 D2              		[SP--]=R1	// QImode move
0000C672 40 F0 8A B0        		call _FG_SetLineStyle	// call with return value
0000C674 41 00              		SP=SP+1
0000081F                    	.debug
0000081F 2E 00 73 00        		.dw '.stabn 0x44,0,54,',0,0
         74 00 61 00
         62 00 6E 00
         20 00 30 00
         78 00 34 00
         34 00 2C 00
         30 00 2C 00
         35 00 34 00
         2C 00 00 00
         00 00      
00000832 42 01 00 00        		.dd LM49-_main
00000834 0D 00 0A 00        		.dw 0x0d,0x0a
0000C675                    	.code
                            	LM49:
0000C675 68 92              		R1=40	// QImode move
0000C676 C8 D2              		[SP--]=R1	// QImode move
0000C677 5E 92              		R1=30	// QImode move
0000C678 C8 D2              		[SP--]=R1	// QImode move
0000C679 4A 92              		R1=10	// QImode move
0000C67A C8 D2              		[SP--]=R1	// QImode move
0000C67B 4A 92              		R1=10	// QImode move
0000C67C C8 D2              		[SP--]=R1	// QImode move
0000C67D 40 F0 5B B5        		call _FG_Rectangle	// call with return value
0000C67F 44 00              		SP=SP+4
00000836                    	.debug
00000836 2E 00 73 00        		.dw '.stabn 0x44,0,55,',0,0
         74 00 61 00
         62 00 6E 00
         20 00 30 00
         78 00 34 00
         34 00 2C 00
         30 00 2C 00
         35 00 35 00
         2C 00 00 00
         00 00      
00000849 4D 01 00 00        		.dd LM50-_main
0000084B 0D 00 0A 00        		.dw 0x0d,0x0a
0000C680                    	.code
                            	LM50:
0000C680 40 92              		R1=0	// QImode move
0000C681 C8 D2              		[SP--]=R1	// QImode move
0000C682 40 F0 8A B0        		call _FG_SetLineStyle	// call with return value
0000C684 41 00              		SP=SP+1
0000084D                    	.debug
0000084D 2E 00 73 00        		.dw '.stabn 0x44,0,56,',0,0
         74 00 61 00
         62 00 6E 00
         20 00 30 00
         78 00 34 00
         34 00 2C 00
         30 00 2C 00
         35 00 36 00
         2C 00 00 00
         00 00      
00000860 52 01 00 00        		.dd LM51-_main
00000862 0D 00 0A 00        		.dw 0x0d,0x0a
0000C685                    	.code
                            	LM51:
0000C685 5E 92              		R1=30	// QImode move
0000C686 C8 D2              		[SP--]=R1	// QImode move
0000C687 5E 92              		R1=30	// QImode move
0000C688 C8 D2              		[SP--]=R1	// QImode move
0000C689 40 F0 59 BC        		call _FG_PutPixel	// call with return value
0000C68B 42 00              		SP=SP+2
00000864                    	.debug
00000864 2E 00 73 00        		.dw '.stabn 0x44,0,57,',0,0
         74 00 61 00
         62 00 6E 00
         20 00 30 00
         78 00 34 00
         34 00 2C 00
         30 00 2C 00
         35 00 37 00
         2C 00 00 00
         00 00      
00000877 59 01 00 00        		.dd LM52-_main
00000879 0D 00 0A 00        		.dw 0x0d,0x0a
0000C68C                    	.code
                            	LM52:
0000C68C 40 92              		R1=0	// QImode move
0000C68D C8 D2              		[SP--]=R1	// QImode move
0000C68E 40 F0 8A B0        		call _FG_SetLineStyle	// call with return value
0000C690 41 00              		SP=SP+1
0000087B                    	.debug
0000087B 2E 00 73 00        		.dw '.stabn 0x44,0,58,',0,0
         74 00 61 00
         62 00 6E 00
         20 00 30 00
         78 00 34 00
         34 00 2C 00
         30 00 2C 00
         35 00 38 00
         2C 00 00 00
         00 00      
0000088E 5E 01 00 00        		.dd LM53-_main
00000890 0D 00 0A 00        		.dw 0x0d,0x0a
0000C691                    	.code
                            	LM53:
0000C691 5D 92              		R1=29	// QImode move
0000C692 C8 D2              		[SP--]=R1	// QImode move
0000C693 5E 92              		R1=30	// QImode move
0000C694 C8 D2              		[SP--]=R1	// QImode move
0000C695 40 F0 59 BC        		call _FG_PutPixel	// call with return value
0000C697 42 00              		SP=SP+2
00000892                    	.debug
00000892 2E 00 73 00        		.dw '.stabn 0x44,0,59,',0,0
         74 00 61 00
         62 00 6E 00
         20 00 30 00
         78 00 34 00
         34 00 2C 00
         30 00 2C 00
         35 00 39 00
         2C 00 00 00
         00 00      
000008A5 65 01 00 00        		.dd LM54-_main
000008A7 0D 00 0A 00        		.dw 0x0d,0x0a
0000C698                    	.code
                            	LM54:
0000C698 43 92              		R1=3	// QImode move
0000C699 C8 D2              		[SP--]=R1	// QImode move
0000C69A 40 F0 8A B0        		call _FG_SetLineStyle	// call with return value
0000C69C 41 00              		SP=SP+1
000008A9                    	.debug
000008A9 2E 00 73 00        		.dw '.stabn 0x44,0,60,',0,0
         74 00 61 00
         62 00 6E 00
         20 00 30 00
         78 00 34 00
         34 00 2C 00
         30 00 2C 00
         36 00 30 00
         2C 00 00 00
         00 00      
000008BC 6A 01 00 00        		.dd LM55-_main
000008BE 0D 00 0A 00        		.dw 0x0d,0x0a
0000C69D                    	.code
                            	LM55:
0000C69D 68 92              		R1=40	// QImode move
0000C69E C8 D2              		[SP--]=R1	// QImode move
0000C69F 5E 92              		R1=30	// QImode move
0000C6A0 C8 D2              		[SP--]=R1	// QImode move
0000C6A1 4A 92              		R1=10	// QImode move
0000C6A2 C8 D2              		[SP--]=R1	// QImode move
0000C6A3 4A 92              		R1=10	// QImode move
0000C6A4 C8 D2              		[SP--]=R1	// QImode move
0000C6A5 40 F0 5B B5        		call _FG_Rectangle	// call with return value
0000C6A7 44 00              		SP=SP+4
000008C0                    	.debug
000008C0 2E 00 73 00        		.dw '.stabn 0x44,0,61,',0,0
         74 00 61 00
         62 00 6E 00
         20 00 30 00
         78 00 34 00
         34 00 2C 00
         30 00 2C 00
         36 00 31 00
         2C 00 00 00
         00 00      
000008D3 75 01 00 00        		.dd LM56-_main
000008D5 0D 00 0A 00        		.dw 0x0d,0x0a
0000C6A8                    	.code
                            	LM56:
                            	LBE2:
000008D7                    	.debug
000008D7 2E 00 73 00        		.dw '.stabn 0x44,0,61,',0,0
         74 00 61 00
         62 00 6E 00
         20 00 30 00
         78 00 34 00
         34 00 2C 00
         30 00 2C 00
         36 00 31 00
         2C 00 00 00
         00 00      
000008EA 75 01 00 00        		.dd LM57-_main
000008EC 0D 00 0A 00        		.dw 0x0d,0x0a
0000C6A8                    	.code
                            	LM57:
                            	L2:
                            	
0000C6A8 41 00              		sp+=1
0000C6A9 88 98              		pop bp from [sp]
0000C6AA 90 9A              		retf
                            		.endp	// end of main
                            	
000008EE                    	.debug
000008EE 2E 00 73 00        		.dw '.stabn 0xc0,0,0,',0,0
         74 00 61 00
         62 00 6E 00
         20 00 30 00
         78 00 63 00
         30 00 2C 00
         30 00 2C 00
         30 00 2C 00
         00 00 00 00
00000900 07 00 00 00        		.dd LBB2-_main
00000902 0D 00 0A 00        		.dw 0x0d,0x0a
0000C6AB                    	.code
00000904                    	.debug
00000904 2E 00 73 00        		.dw '.stabn 0xe0,0,0,',0,0
         74 00 61 00
         62 00 6E 00
         20 00 30 00
         78 00 65 00
         30 00 2C 00
         30 00 2C 00
         30 00 2C 00
         00 00 00 00
00000916 75 01 00 00        		.dd LBE2-_main
00000918 0D 00 0A 00        		.dw 0x0d,0x0a
0000C6AB                    	.code
0000091A                    	.debug
0000091A 2E 00 73 00        		.dw '.stabf ',0,0
         74 00 61 00
         62 00 66 00
         20 00 00 00
         00 00      
00000923 78 01 00 00        		.dd LME1-_main
00000925 0D 00 0A 00        		.dw 0x0d,0x0a
0000C6AB                    	.code
                            	LME1:
                            	.external _FG_Rectangle
                            	.external _FG_GetCharHeight
                            	.external _mode2
                            	.external _FG_PutBitmap
                            	.external _FG_SetBMPMode
                            	.external _FG_PutPixel
                            	.external _FG_ClearScreen
                            	.external _F_Delay
                            	.external _FG_PutStr
                            	.external _FG_Ellipse
                            	.external _FG_SetLineStyle
                            	.external _FG_InitGraphic
                            	.external _Init_sys
                            	.external _Init_irq5
                            		.end
0 error(s), 0 warning(s).

