Sunplus u'nSP Assembler - Ver. 1.8.0
              Listing File Has Been Relocated
                            	//////////////////////////////////////////////////////////////////////////////////////////
                            	//
                            	//////////////////////////////////////////////////////////////////////////////////////////
                            	.include		hardware.inc
                     <      	//========================================================================================
                     <      	// Progarm: The file be included by modules
                     <      	// Arranged by: Andy Hsu
                     <      	// Date: 	2000/06/23: first version
                     <      	//		2000/07/24: modified
                     <      	//		2000/10/20: modified for version 52A
                     <      	//========================================================================================
                     <      	//////////////////////////////////////////////////////////////////
                     <      	// Definitions for I/O Port
                     <      	//////////////////////////////////////////////////////////////////
                     <      	.DEFINE	P_IOA_Data   		0x7000;        // Write Data into data register and read from IOA pad
                     <      	.DEFINE P_IOA_Buffer        0x7001;        // Write Data into buffer register and read from buffer register
                     <      	.DEFINE P_IOA_Dir           0x7002;        // Direction vector for IOA
                     <      	.DEFINE P_IOA_Attrib        0x7003;        // Attribute vector for IOA
                     <      	.DEFINE P_IOA_Latch         0x7004;        // Latch PortA data for key change wake-up
                     <      	
                     <      	.DEFINE P_IOB_Data         	0x7005;        // Write Data into the data register and read from IOB pad
                     <      	.DEFINE P_IOB_Buffer        0x7006;        // Write Data into buffer register and read from buffer register
                     <      	.DEFINE P_IOB_Dir           0x7007;        // Direction vector for IOB
                     <      	.DEFINE P_IOB_Attrib        0x7008;        // Attribute vector for IOB
                     <      	
                     <      	.DEFINE P_FeedBack          0x7009;        // Clock form external R,C
                     <      	.DEFINE P_TimerA_Data       0x700A;        // Data port for TimerA 
                     <      	.DEFINE P_TimerA_Ctrl       0x700B;        // Control Port for TimerA
                     <      	.DEFINE P_TimerB_Data       0x700C;        // Data port for TimerB
                     <      	.DEFINE P_TimerB_Ctrl       0x700D;        // Control Port for TimerB
                     <      	.DEFINE P_TimeBase_Setup    0x700E;        // TimerBase Freq. Set
                     <      	.DEFINE P_TimeBase_Clear	0x700F;		   // Reset Timerbase counter
                     <      	.DEFINE P_INT_Ctrl          0x7010;        // Control port for interrupt source
                     <      	.DEFINE P_INT_Clear         0x7011;        // Clear interrupt source
                     <      	.DEFINE P_Watchdog_Clear    0x7012;        // Watchdog Reset
                     <      	.DEFINE P_SystemClock       0x7013;        // Change system clock frequency(include go to standby mode)
                     <      	
                     <      	//... PA6442 Old version (for EC-02) ...........
                     <      	//.DEFINE P_ADDA               0x7014;        //10-bit DA(W) AD(R)
                     <      	//.DEFINE P_DAC1               0x7014;        //
                     <      	//.DEFINE P_AD_Ctrl            0x7015;        //AD/DA control
                     <      	//.DEFINE P_AD_Status          0x7015;        //AD status
                     <      	//.DEFINE P_DAC2               0x7016;        //DAC channel 2
                     <      	//.DEFINE P_PWM                0x7016;        //PWM output
                     <      	//.DEFINE P_DA_Ctrl            0x7017;        //DAC latch control
                     <      	
                     <      	//... PA6442 New version MC52A (For EC-03)....
                     <      	.DEFINE P_ADC 	        	0x7014;        	// Data Port for AD
                     <      	.DEFINE P_ADC_Ctrl          0x7015;        	// Control Port for AD control
                     <      	.DEFINE P_ADC_Status        0x7015;        	// AD Port Status
                     <      	.DEFINE P_DAC2              0x7016;        	// Data Port for DAC2
                     <      	.DEFINE P_PWM               0x7016;        	// Data Port for PWM
                     <      	.DEFINE P_DAC1	        	0x7017;        	// Data Port for DAC1
                     <      	.DEFINE P_DAC_Ctrl			0x702A;			// Control Port for two DAC and audio output mode
                     <      	//............................................
                     <      	
                     <      	.DEFINE P_IR_Ctrl			0x7018;			// Control Port for IR
                     <      	.DEFINE P_LVD_Ctrl          0x7019;        	// Control Port for LVD
                     <      	
                     <      	.DEFINE P_SIO_Addr_Low		0x701B;			// Address Port low
                     <      	.DEFINE P_SIO_Addr_Mid		0x701C;			// Address Port middle
                     <      	.DEFINE P_SIO_Addr_High	 	0x701D;			// Address Port high
                     <      	.DEFINE P_SIO_Ctrl			0x701E;			// Control Port
                     <      	.DEFINE P_SIO_Start			0x701F;			// Start port for serial interface
                     <      	.DEFINE P_SIO_Stop			0x7020;			// Stop port for serial interface
                     <      	
                     <      	.DEFINE P_UART_Command1		 0x7021;		// Command1 Port for UART
                     <      	.DEFINE P_UART_Command2		 0x7022;		// Command2 Port for UART
                     <      	.DEFINE P_UART_Data			 0x7023; 		// Data Port for UART
                     <      	.DEFINE	P_UART_BaudScalarLow 0x7024;		// Set Baud Rate scalar low
                     <      	.DEFINE	P_UART_BaudScalarHigh 0x7025;		// Set Baud Rate scalar high
                     <      	
                     <      	
                     <      	//... Definitions for P_INT_Ctrl ..............
                     <      	.DEFINE C_IRQ6_TMB2             0x0001;        	// Timer B IRQ6
                     <      	.DEFINE C_IRQ6_TMB1             0x0002;        	// Timer A IRQ6
                     <      	.DEFINE C_IRQ5_2Hz              0x0004;        	// 2Hz IRQ5
                     <      	.DEFINE C_IRQ5_4Hz              0x0008;        	// 4Hz IRQ5
                     <      	.DEFINE C_IRQ4_1KHz             0x0010;        	// 1024Hz IRQ4
                     <      	.DEFINE C_IRQ4_2KHz             0x0020;        	// 2048Hz IRQ4
                     <      	.DEFINE C_IRQ4_4KHz             0x0040;        	// 4096Hz IRQ4
                     <      	.DEFINE C_IRQ3_KEY              0x0080;        	// Key Change IRQ3
                     <      	.DEFINE C_IRQ3_EXT1             0x0100;        	// Ext1 IRQ3
                     <      	.DEFINE C_IRQ3_EXT2             0x0200;        	// Ext2 IRQ3
                     <      	.DEFINE C_IRQ2_TMB              0x0400;        	// Timer B IRQ2
                     <      	.DEFINE C_FIQ_TMB               0x0800;        	// Timer B FIQ
                     <      	.DEFINE C_IRQ1_TMA              0x1000;        	// Timer A IRQ1
                     <      	.DEFINE C_FIQ_TMA               0x2000;        	// Timer A FIQ
                     <      	.DEFINE C_IRQ0_PWM              0x4000;        	// PWM IRQ0
                     <      	.DEFINE C_FIQ_PWM               0x8000;        	// PWM FIQ
                     <      	
                     <      	// Definitions for P_TimerA/B_Ctrl ............                               
                     <      	.DEFINE	C_Fosc_2				0x0000;			// 
                     <      	.DEFINE	C_Fosc_256		    	0x0001;			//
                     <      	.DEFINE	C_32768Hz				0x0002;			//
                     <      	.DEFINE	C_8192Hz				0x0003;			//
                     <      	.DEFINE	C_4096Hz				0x0004;			//
                     <      	.DEFINE	C_A1					0x0005;			//
                     <      	.DEFINE C_A0					0x0006;			//
                     <      	.DEFINE C_Ext1					0x0007;			//
                     <      	
                     <      	.DEFINE	C_2048Hz				0x0000;			//
                     <      	.DEFINE	C_1024Hz				0x0008;			//
                     <      	.DEFINE	C_256Hz					0x0010;			//
                     <      	.DEFINE	C_TMB1Hz				0x0018;			//
                     <      	.DEFINE	C_4Hz					0x0020;			//
                     <      	.DEFINE	C_2Hz					0x0028;			//
                     <      	.DEFINE	C_B1					0x0030;			//
                     <      	.DEFINE	C_Ext2					0x0038;			//
                     <      	
                     <      	.DEFINE	C_Off					0x0000;			//
                     <      	.DEFINE C_D1					0x0040;			//
                     <      	.DEFINE C_D2					0x0080;			//
                     <      	.DEFINE C_D3					0x00C0;			//
                     <      	.DEFINE C_D4					0x0100;			//
                     <      	.DEFINE C_D5					0x0140;			//
                     <      	.DEFINE C_D6					0x0180;			//
                     <      	.DEFINE C_D7					0x01C0;			//
                     <      	.DEFINE C_D8					0x0200;			//
                     <      	.DEFINE C_D9					0x0240;			//
                     <      	.DEFINE C_D10					0x0280;			//
                     <      	.DEFINE C_D11					0x02C0;			//
                     <      	.DEFINE C_D12					0x0300;			//
                     <      	.DEFINE C_D13					0x0340;			//
                     <      	.DEFINE C_D14					0x0380;			//
                     <      	.DEFINE C_TA_Div_2				0x03C0;			// Timer A
                     <      	.DEFINE C_TB_Div_2				0x03C0;			// Timer B
                     <      	
                     <      	//... Definition for P_SystemClock ............
                     <      	.DEFINE C_Fosc					0x0000;			// b3..b0
                     <      	.DEFINE C_Fosc_Div_2			0x0001;			//
                     <      	.DEFINE C_Fosc_Div_4			0x0002;			//
                     <      	.DEFINE C_Fosc_Div_8			0x0003;			// (default)
                     <      	.DEFINE C_Fosc_Div_16			0x0004;			//
                     <      	.DEFINE C_Fosc_Div_32			0x0005;			//
                     <      	.DEFINE C_Fosc_Div_64			0x0006;			//
                     <      	.DEFINE C_Sleep					0x0007;		 	//
                     <      	
                     <      	.DEFINE	C_32K_Work				0x0000;			// b4
                     <      	.DEFINE C_32K_Off				0x0000;			// 
                     <      	.DEFINE C_StrongMode			0x0000;			// b5
                     <      	.DEFINE C_AutoMode				0x0000;			//
                     <      	
                     <      	//... Define for P_AD_Ctrl ....................
                     <      	.DEFINE	C_AD					0x0001;			//
                     <      	.DEFINE C_DA					0x0000;			//
                     <      	.DEFINE C_MIC					0x0000;			//
                     <      	.DEFINE C_LINE					0x0002;			//
                     <      	
                     <      	//... Define for P_DA_Ctrl ....................
                     <      	.DEFINE C_PushPull				0x0000;			// b0, (default) 
                     <      	.DEFINE C_DoubleEnd				0x0001;			// b0
                     <      	.DEFINE	C_DAC_Mode				0x0000;			// b1, (default)
                     <      	.DEFINE C_PWM_Mode				0x0002;			// b1
                     <      	
                     <      	.DEFINE	C_D1_Direct				0x0000;			// DAC1 latch
                     <      	.DEFINE C_D1_LatchA				0x0008;			// 
                     <      	.DEFINE C_D1_LatchB				0x0010;			//
                     <      	.DEFINE C_D1_LatchAB			0x0018;			//
                     <      	
                     <      	.DEFINE	C_D2_Direct				0x0000;			// DAC2 latch
                     <      	.DEFINE C_D2_LatchA				0x0020;			// 
                     <      	.DEFINE C_D2_LatchB				0x0040;			//
                     <      	.DEFINE C_D2_LatchAB			0x00C0;			//
                     <      	
                     <      	//... Define for P_LVD_Ctrl ...................
                     <      	.DEFINE C_LVD24V				0x0000;			// LVD = 2.4V 
                     <      	.DEFINE C_LVD28V				0x0001;			// LVD = 2.8V
                     <      	.DEFINE C_LVD32V				0x0002;			// LVD = 3.2V
                     <      	.DEFINE C_LVD36V				0x0003;			// LVD = 3.6V
                     <      	
                     <      	
                     <      	.EXTERNAL	F_SP_Read_INT_Status;			// for further use
                     <      	.EXTERNAL 	F_SP_Write_INT_Status;			// for further use
                     <      	.EXTERNAL  	F_SP_Set_INT_Vector;			// for further use
                     <      	.EXTERNAL	F_SP_Clear_INT_Vector;			// for further use
                     <      	
                     <      	.EXTERNAL	F_SP_Send_Out;					//
                     <      	.EXTERNAL	F_SP_Send_DAC1;					//
                     <      	.EXTERNAL	F_SP_Send_DAC2;					//
                     <      	.EXTERNAL	F_SP_Send_Two_DAC;				//
                     <      	.EXTERNAL	F_SP_Init_HW;					//
                     <      	
                     <      	.EXTERNAL	R_InterruptStatus;
                     <      	
                     <      	
                     <      	.EXTERNAL 	F_SP_RampUpDAC1;
                     <      	.EXTERNAL 	F_SP_RampDnDAC1;
                     <      	.EXTERNAL 	F_SP_RampUpDAC2;
                     <      	.EXTERNAL  	F_SP_RampDnDAC2;
                     <      	
                     <      	.EXTERNAL 	F_SP_InitQueue;
                     <      	.EXTERNAL 	F_SP_ReadQueue;
                     <      	.EXTERNAL 	F_SP_WriteQueue;
                     <      	.EXTERNAL 	F_SP_TestQueue;
                     <      	
                     <      	
                     <      	
                     <      	.EXTERNAL	F_SP_Get_ADC
                     <      	
                     <      	.EXTERNAL 	F_SP_Set_P_TimerA_Ctrl
                     <      	.EXTERNAL 	F_SP_Set_P_TimerA_Data
                     <      	.EXTERNAL 	F_SP_Set_P_TimerB_Ctrl
                     <      	.EXTERNAL 	F_SP_Set_P_TimerB_Data
                     <      	.EXTERNAL 	F_SP_Set_P_INT_Ctrl
                     <      	.EXTERNAL 	F_SP_Set_P_INT_Clear
                     <      	.EXTERNAL 	F_SP_Set_P_SystemClock
                     <      	.EXTERNAL 	F_SP_Set_P_DAC_Ctrl
                     <      	.EXTERNAL 	F_SP_Set_P_ADC_Ctrl
                     <      	
                     <      		
                     <      	
                     <      	//--------------------------------------------
                     <      	SACM_MACRO1: 	.MACRO
                     <      		
                     <      		.ENDM
                     <      	
                     <      	SACM_MACRO2:	.MACRO
                     <      		
                     <      		.ENDM
                     <      	
                     <      	
                     <      	
                     <      	
                     <      	//.define PC_Play_Enable_A2000		1    	// Enable the PC-Play function for SACM-A2000 module
                     <      	//.define PC_Play_Enable_S480		1    	// Enable the PC-Play function for SACM-S480 module
                     <      	//.define PC_Play_Enable_S240		1    	// Enable the PC-Play function for SACM-S240 module    
                     <      	//.define PC_Play_Enable_MS01		1    	// Enable the PC-Play function for SACM-MS01 module
                     <      	
                     <      	
                     <      	
                     <      	//========================================================================================        
                     <      	// End of hardware.inc
                     <      	//========================================================================================
                            	.include		splc501c_io.inc
                     <      	//========================================================
                     <      	//SPLC501C Library Pin Definition
                     <      	//==========================================================
                     <      	//6800 Control Pin
                     <      	//-----------------------------------------------------------------------------
                     <      	//User can change  any of control pins at any bit, except user select the IO port 
                     <      	//of control pin the same as control bus. 
                     <      	//=======================================================
                     <      	//								FEDCBA9876543210					
                     <      	//.define		C_AOP_Pin    	00100000000000b;		//IO AOP
                     <      	//.define		C_EP_Pin   		01000000000000b;		//IO EP
                     <      	//.define		C_RWP_Pin     	10000000000000b;		//IO as RWP
                     <      	//								FEDCBA9876543210
                     <      	.define		C_AOP_Pin    	    0000000000010000b;		//IO AOP
                     <      	.define		C_EP_Pin   			0000000001000000b;		//IO EP
                     <      	.define		C_RWP_Pin     		0000000000100000b;		//IO as RWP
                     <      	//========================================================
                     <      	//Define the SPLC Data Bus Pin
                     <      	//Only Two Type Can Select
                     <      	//=====================================================
                     <      	//							FEDCBA9876543210
                     <      	.define		C_DataBus		1111111100000000b;		//IO Data Bus
                     <      	//.define		C_DataBus		0000000011111111b;
                     <      	.define		C_BusHighLow	1;			//Set Data High/Low Byte 1:High	
                     <      	//.define	C_AddressBus	0000000011111111b;		//IO Data Bus
                     <      	//.define	C_DataBus		0000000011111111b;		//IO Data Bus
                     <      	//.define	C_BusHighLow	0;			//Set Data High/Low Byte 0:Low
                     <      	//=====================================================
                     <      	//================================================
                     <      	//Set Control Pins Port
                     <      	//================================================
                     <      	//Set Control Pins At Port A
                     <      	//.define	P_IO_Control_Data			0x7000;		//P_IOA_Data
                     <      	//.define	P_IO_Control_Buffer			0x7001;		//P_IOA_Buffer
                     <      	//.define	P_IO_Control_Dir			0x7002;		//P_IOA_Dir
                     <      	//.define	P_IO_Control_Attrib			0x7003;		//P_IOA_Attrib
                     <      	//=========================================================
                     <      	//Set Control Pins At Port B
                     <      	.define	P_IO_Control_Data		0x7005;		//P_IOB_Data
                     <      	.define	P_IO_Control_Buffer		0x7006;		//P_IOB_Buffer
                     <      	.define	P_IO_Control_Dir		0x7007;		//P_IOB_Dir
                     <      	.define	P_IO_Control_Attrib		0x7008;		//P_IOB_Attrib
                     <      	//========================================================
                     <      	//=========================================================
                     <      	//Set Control Bus Port
                     <      	//==========================================================
                     <      	//Set Control Bus At Port A
                     <      	.define	P_IO_Data_Data				0x7000;		//P_IOA_Data
                     <      	.define	P_IO_Data_Buffer			0x7001;		//P_IOA_Buffer
                     <      	.define	P_IO_Data_Dir				0x7002;		//P_IOA_Dir
                     <      	.define	P_IO_Data_Attrib			0x7003;		//P_IOA_Attrib
                     <      	//==========================================================
                     <      	//Set Control Bus At Port B
                     <      	//.define	P_IO_Data_Data			0x7005;		//P_IOB_Data
                     <      	//.define	P_IO_Data_Buffer		0x7006;		//P_IOB_Buffer
                     <      	//.define	P_IO_Data_Dir			0x7007;		//P_IOB_Dir
                     <      	//.define	P_IO_Data_Attrib		0x7008;		//P_IOB_Attrib
                     <      	//=========================================================
                            	.include		splc501c.inc
                     <      	//////////////////////////////////////////////////////////////////////////
                     <      	.define	_public_area_x_l			0x00				//点X坐标显示范围
                     <      	.define	_public_area_x_h			0x70				//点X坐标显示范围
                     <      	.define	_public_area_y_l			0x00				//点y坐标显示范围
                     <      	.define	_public_area_y_h			0x40				//点y坐标显示范围
                     <      	//////////////////////////////////////////////////////////////////////////
                     <      	.define	sign_zk_bank			0x08
                     <      	
                     <      	.define	line_mode_bit_clear		0xffc7
                     <      	.define	line_mode_bit			0x0038
                     <      	
                     <      	.define	DRAW_COVER			0			//(default)
                     <      	.define	DRAW_ERASE			1	
                     <      	.define	DRAW_HOLLOW			2	
                     <      	.define	DRAW_DOTTED			3	
                     <      	.define	DRAW_HOLLOW_ERASE	4	
                     <      	.define	DRAW_DOTTED_COVER	5	
                     <      	.define	DRAW_SOLID_XOR		6	
                     <      	.define	DRAW_DOTTED_XOR		7
                     <      	
                     <      	.define	draw_mode_COVER			0x0000
                     <      	.define	draw_mode_ERASE			0x0008
                     <      	.define	draw_mode_HOLLOW		0x0010
                     <      	.define	draw_mode_DOTTED		0x0018
                     <      	.define	draw_mode_HOLLOW_ERASE	0x0020
                     <      	.define	draw_mode_DOTTED_COVER	0x0028
                     <      	.define	draw_mode_SOLID_XOR		0x0030
                     <      	.define	draw_mode_DOTTED_XOR	0x0038
                     <      	
                     <      	
                     <      	.define	DG_LINE_COVER			0			//(default)
                     <      	.define	DG_LINE_ERASE			1	
                     <      	.define	DG_LINE_HOLLOW			2	
                     <      	.define	DG_LINE_DOTTED			3	
                     <      	.define	DG_LINE_HOLLOW_ERASE	4	
                     <      	.define	DG_LINE_DOTTED_COVER	5	
                     <      	.define	DG_LINE_SOLID_XOR		6	
                     <      	.define	DG_LINE_DOTTED_XOR		7
                     <      	
                     <      	.define	line_mode_COVER			0x0000
                     <      	.define	line_mode_ERASE			0x0008
                     <      	.define	line_mode_HOLLOW		0x0010
                     <      	.define	line_mode_DOTTED		0x0018
                     <      	.define	line_mode_HOLLOW_ERASE	0x0020
                     <      	.define	line_mode_DOTTED_COVER	0x0028
                     <      	.define	line_mode_SOLID_XOR		0x0030
                     <      	.define	line_mode_DOTTED_XOR	0x0038
                     <      	
                     <      	.define	DG_RECT_COVER			0		//(default)
                     <      	.define	DG_RECT_ERASE			1		//
                     <      	.define	DG_RECT_HOLLOW			2		//
                     <      	.define	DG_RECT_DOTTED			3		//
                     <      	.define	DG_RECT_HOLLOW_ERASE	4		//
                     <      	.define	DG_RECT_DOTTED_COVER	5		//
                     <      	.define	DG_RECT_SOLID_XOR		6		//
                     <      	.define	DG_RECT_DOTTED_XOR		7	
                     <      	
                     <      	.define	rect_mode_COVER			0x0000
                     <      	.define	rect_mode_ERASE			0x0008
                     <      	.define	rect_mode_HOLLOW		0x0010
                     <      	.define	rect_mode_DOTTED		0x0018
                     <      	.define	rect_mode_HOLLOW_ERASE	0x0020
                     <      	.define	rect_mode_DOTTED_COVER	0x0028
                     <      	.define	rect_mode_SOLID_XOR		0x0030
                     <      	.define	rect_mode_DOTTED_XOR	0x0038
                     <      	
                     <      	.define	bmp_mode_bit_clear		0xfe3f
                     <      	.define	bmp_mode_bit			0x01c0
                     <      	
                     <      	.define	DG_BMP_COVER			0		
                     <      	.define	DG_BMP_CLEAR			1		
                     <      	.define	DG_BMP_XOR				2
                     <      	
                     <      	.define	BMP_mode_COVER			0x0000		
                     <      	.define	BMP_mode_CLEAR			0x0100		
                     <      	.define	BMP_mode_XOR			0x00c0
                     <      	
                     <      	.define	dotted_mode_bit_clear	0xffc3
                     <      	.define	dotted_mode_bit			0x003c
                     <      	
                     <      	.define	DG_PIXEL_COVER			0		//(default)
                     <      	.define	DG_PIXEL_CLEAR			1	
                     <      	.define	DG_PIXEL_XOR			2
                     <      	
                     <      	.define	pixel_mode_COVER		0x0000		
                     <      	.define	pixel_mode_CLEAR		0x0008		
                     <      	.define	pixel_mode_XOR			0x0030
                            	.external		F_Set_LCD_Page_No
                            	.external		F_Set_LCD_Column_Addr
                            	.external		F_Read_Lcd_data
                            	.external		_Init_LCD_501
                            	.external		F_Fill_All_LCD_Value
                            	.external		F_Send_data
                            	.external		_Read_Lcd_data
                            	.external		F_Display_point
                            	.external		_Init_IO
                            	
00000000                    	.RAM
0000AEB4                    	.CODE
                            	//////////////////////////////////////////////////////////////////////////////
                            	//Filename : _Init_sys
                            	//Function  Description	:	initialize systemClock and Find the "zk_data" position
                            	//Input    : no
                            	//Output   : [bank1]	zk_data at rom bank 
                            	//Destory  : R1,R2,R3,R4
                            	//////////////////////////////////////////////////////////////////////////////
                            	.public		_Init_sys
                            	_Init_sys:
                            	F_Init_sys:		.proc
0000AEB4 40 92              		r1=0x0000
0000AEB5 19 D3 13 70        		[P_SystemClock]=r1
                            	//	call _F_image_bank
0000AEB7 40 F0 BA AE        		call F_zk_bank
0000AEB9 90 9A              	    RETF
                            		.endp
                            		
                            	//////////////////////////////////////////////////////////////////////////////
                            	//Filename : F_zk_bank
                            	//Function  Description	:	Find the "zk_data" position
                            	//Input    : none
                            	//Output   : [bank1]	  zk_data at rom bank
                            	//Destory  : R1,R2,R3,R4
                            	//////////////////////////////////////////////////////////////////////////////	
                            	.external bank1
                            	.external	tiny3		//zk_data
                            	.public		F_zk_bank
                            	F_zk_bank:
0000AEBA 40 98              			r4=0x00
                            			//////
0000AEBB 06 95              			r2=sr
0000AEBC 0A B5 FF 03        			r2&=0x03ff
0000AEBE 09 93 97 80        			r1=tiny3		//zk_data    			//zk_data at zk.asm
                            	F_zk_bank_loop:		
0000AEC0 02 9D              			sr=r2
0000AEC1 E1 96              			r3=D:[r1]
0000AEC2 0B 47 FF 00        			cmp r3,0x00ff
0000AEC4 05 5E              			je F_zk_bank_0
0000AEC5 0C 09 00 04        			r4+=0x0400
0000AEC7 0A 05 00 04        			r2+=0x0400
0000AEC9 4A EE              			jmp F_zk_bank_loop
                            	F_zk_bank_0:	
0000AECA 1C D9 01 00        			[bank1]=r4
0000AECC 90 9A              			retf		
                            	//////////////////////////////////////////////////////////////////////////////  
                            	//Filename : _pixel
                            	//Function : display appoint pixel
                            	//Input    : x,y
                            	//Output   : display a appoint pixel on lcd
                            	//Destroy  : R1,r2,r3
                            	////////////////////////////////////////////////////////////////////////////// 	
                            	.external		pixel_page
                            	.external		pixel_column
                            	.external		pixel_bit
                            	.external		TAB_pixel	
                            	.public	_pixel 
                            	_pixel:  .proc
0000AECD 88 DA              			PUSH BP,BP TO [SP];
0000AECE 00 9B              			bp=sp
0000AECF 44 0A              			bp+=0x04
0000AED0 C5 92              			r1=[bp]
0000AED1 41 0A              			bp+=0x01
0000AED2 C5 94              			r2=[bp]
                            	F_pixel: 		
0000AED3 19 D3 03 00        			[pixel_column]=r1			//work out column
0000AED5 40 92              			r1=0x00
0000AED6 19 D3 02 00        			[pixel_page]=r1
                            	F_pixel_2:	
0000AED8 48 44              			cmp	r2,0x08
0000AED9 09 0E              			jb	F_pixel_1
0000AEDA 48 44              			cmp	r2,0x08
0000AEDB 07 5E              			je	F_pixel_1
0000AEDC 48 24              			r2-=0x08
0000AEDD 11 93 02 00        			r1=[pixel_page]
0000AEDF 41 02              			r1+=0x01
0000AEE0 19 D3 02 00        			[pixel_page]=r1
0000AEE2 4B EE              			jmp F_pixel_2
                            	F_pixel_1:	
0000AEE3 09 93 5B 80        			r1=TAB_pixel
0000AEE5 02 03              			r1+=r2
0000AEE6 C1 94              			r2=[r1]
0000AEE7 1A D5 04 00        			[pixel_bit]=r2				//work out pixel_bit,pixel_page
                            	//		R1 = [pixel_page]               
                            	//        CALL    F_Set_LCD_Page_No
                            	//        R2 = [pixel_column]                
                            	//        CALL    F_Set_LCD_Column_Addr
0000AEE9 11 93 02 00        			r1=[pixel_page]                   
0000AEEB 19 D3 76 00        			[_page]=r1
0000AEED 11 93 03 00        			r1=[pixel_column]
0000AEEF 19 D3 77 00        	        [_page_place]=r1    
0000AEF1 13 97 04 00        	        r3=[pixel_bit]
0000AEF3 1B D7 7D 00        	        [_point_value]=r3
0000AEF5 40 F0 3D B4        	        call	display_a_point
0000AEF7 13 97 5E 00        	        r3=[sign]
0000AEF9 41 B6              	        r3&=0x01
0000AEFA 01 4E              	        jnz	F_pixel_end
0000AEFB 88 98              	        POP BP,BP FROM [SP]
                            	F_pixel_end:
0000AEFC 13 97 5E 00        			r3=[sign]
0000AEFE 0B B7 FE FF        	        r3&=0xfffe
0000AF00 1B D7 5E 00        	        [sign]=r3		
0000AF02 90 9A              			retf
                            	        .endp
                            	//////////////////////////////////////////////////////////////////////////////  
                            	//Filename : F_Get_pixel
                            	//参数: PlotX,PlotY
                            	//Function : appoint pixel state,if r1=0 then point is white else point is black.
                            	//Get the pixel color at (PlotX,PlotY), and store in A.
                            	//Input    : x,y
                            	//Output   : r1      appoint pixel state on lcd
                            	//Destroy  : R1,r2,r3
                            	//用法: 	FG_GetPixel(short PlotX,short PlotY)
                            	//Example:	FG_GetPixel()
                            	//			FG_GetPixel(10,20)
                            	//////////////////////////////////////////////////////////////////////////////         
                            	F_Get_pixel:
0000AF03 19 D3 03 00        			[pixel_column]=r1			//work out column
0000AF05 40 92              			r1=0x00
0000AF06 19 D3 02 00        			[pixel_page]=r1
                            	F_Get_pixel_2:	
0000AF08 48 44              			cmp	r2,0x08
0000AF09 09 0E              			jb	F_Get_pixel_1
0000AF0A 48 44              			cmp	r2,0x08
0000AF0B 07 5E              			je	F_Get_pixel_1
0000AF0C 48 24              			r2-=0x08
0000AF0D 11 93 02 00        			r1=[pixel_page]
0000AF0F 41 02              			r1+=0x01
0000AF10 19 D3 02 00        			[pixel_page]=r1
0000AF12 4B EE              			jmp F_Get_pixel_2
                            	F_Get_pixel_1:	
0000AF13 09 93 5B 80        			r1=TAB_pixel				
0000AF15 02 03              			r1+=r2
0000AF16 C1 94              			r2=[r1]
0000AF17 1A D5 04 00        			[pixel_bit]=r2				//work out pixel_bit,pixel_page
0000AF19 11 93 02 00        			R1 = [pixel_page]               
0000AF1B 40 F0 15 C4        	        CALL    F_Set_LCD_Page_No
0000AF1D 12 95 03 00        	        R2 = [pixel_column]                
0000AF1F 40 F0 3E C4        	        CALL    F_Set_LCD_Column_Addr
0000AF21 40 F0 C0 C4        	        call	F_Read_Lcd_data
0000AF23 11 93 04 00        	        r1=[pixel_bit]
0000AF25 7B 97              	        r3=r3 lsr 0x04
0000AF26 7B 97              	        r3=r3 lsr 0x04
0000AF27 03 B3              	        r1&=r3
                            	F_Get_pixel_end:
0000AF28 90 9A              			retf
                            	//////////////////////////////////////////////////////////////////////////////  
                            	//Filename : image
                            	//Function : display image
                            	//Input    : x,y,tab
                            	//Output   : display image at appoint place
                            	//Destroy  : R1,r2,r3
                            	////////////////////////////////////////////////////////////////////////////// 
                            	.external		image_width_byte
                            	.external		image_high_bit
                            	.external		image_jumpoff_point_x
                            	.external		image_jumpoff_point_y
                            	.external		image_tab
                            	.external		image_page			
                            	.external		image_bit
                            	.external		image_lcd_data
                            	.external		image_temp_data	
                            	.external		image_temp_data1
                            	.external		image_tab_pointer	
                            	.public		image
                            	image:			.proc
0000AF29 88 DA              			PUSH BP,BP TO [SP];
0000AF2A 00 9B              			bp=sp
0000AF2B 44 0A              			bp+=0x04
0000AF2C C5 92              			r1=[bp]
0000AF2D 19 D3 04 00        			[image_jumpoff_point_x]=r1
0000AF2F 41 0A              			bp+=0x01
0000AF30 C5 92              			r1=[bp]
0000AF31 19 D3 05 00        			[image_jumpoff_point_y]=r1
0000AF33 41 0A              			bp+=0x01
0000AF34 C5 92              			r1=[bp]
0000AF35 41 02              			r1+=0x01
0000AF36 19 D3 06 00        			[image_tab]=r1
0000AF38 41 0A              			bp+=0x01
0000AF39 C5 92              			r1=[bp]
0000AF3A 19 D3 02 00        			[image_width_byte]=r1
0000AF3C 41 0A              			bp+=0x01
0000AF3D C5 92              			r1=[bp]
0000AF3E 19 D3 03 00        			[image_high_bit]=r1					//get parameter form c
                            	F_image:
0000AF40 40 92              			r1=0x00
0000AF41 19 D3 07 00        			[image_page]=r1
0000AF43 19 D3 0D 00        			[image_temp_data1]=r1
0000AF45 12 95 05 00        			r2=[image_jumpoff_point_y]
                            	F_image_page_no_end:		
0000AF47 48 44              			cmp	r2,0x08
0000AF48 09 0E              			jb	F_image_page_end
0000AF49 48 44              			cmp	r2,0x08
0000AF4A 07 5E              			je	F_image_page_end
0000AF4B 48 24              			r2-=0x08
0000AF4C 11 93 07 00        			r1=[image_page]
0000AF4E 41 02              			r1+=0x01
0000AF4F 19 D3 07 00        			[image_page]=r1
0000AF51 4B EE              			jmp F_image_page_no_end
                            	F_image_page_end:
0000AF52 1A D5 08 00        			[image_bit]=r2						//work out page and bit of jumping off point 		
0000AF54 40 94              			r2=0x00
                            	F_image_no_end:		
0000AF55 11 93 06 00        			r1=[image_tab]	
0000AF57 19 D3 0C 00        			[image_tab_pointer]=r1
0000AF59 11 93 04 00        			r1=[image_jumpoff_point_x]	
0000AF5B 90 D4              			push r1,r2 to [sp]					//save [image_jumpoff_point_x],r2
                            	//		call	F_image_process_1			//display eight row
0000AF5C 40 F0 7E AF        			call	F_image_display_eightrow 
0000AF5E 90 90              			pop r1,r2 from [sp]
0000AF5F 41 04              			r2+=0x01
0000AF60 19 D3 04 00        			[image_jumpoff_point_x]=r1
0000AF62 11 93 06 00        			r1=[image_tab]
0000AF64 41 02              			r1+=0x01
0000AF65 19 D3 06 00        			[image_tab]=r1	
0000AF67 19 D3 0C 00        			[image_tab_pointer]=r1				//data pointer of image
0000AF69 11 93 07 00        			R1 = [image_page]
0000AF6B 41 22              			r1-=0x01
0000AF6C 19 D3 07 00        			[image_page]=r1
0000AF6E 12 45 02 00        			cmp	r2,[image_width_byte]			//if image end
0000AF70 01 5E              			je	F_image_finish
0000AF71 5D EE              			jmp	F_image_no_end
                            	F_image_finish:
0000AF72 11 93 5E 00        			r1=[sign]							//if assembler transfer
0000AF74 41 B2              			r1&=0x01
0000AF75 01 4E              			jne	F_image_end
0000AF76 88 98              			POP BP,BP FROM [SP];
                            	F_image_end:
0000AF77 11 93 5E 00        			r1=[sign]
0000AF79 09 B3 FE FF        			r1&=0xfffe
0000AF7B 19 D3 5E 00        			[sign]=r1		
0000AF7D 90 9A              			retf
                            	        .endp
                            	/////////////////////////////////////////////////////////////////////////        
                            	F_image_display_eightrow:
0000AF7E 40 98              			r4=0x00								//pointer of tier data
                            	image_display_eightrow_begin:		 
0000AF7F 11 93 07 00        			R1 = [image_page]  
0000AF81 49 42              			cmp	r1,0x0009						//area of	page
0000AF82 01 0E              			jb	  image_eightrow_begin
0000AF83 90 9A              			retf
                            	image_eightrow_begin:             
0000AF84 40 F0 15 C4        	        CALL    F_Set_LCD_Page_No
0000AF86 12 95 04 00        	        R2 = [image_jumpoff_point_x]
0000AF88 40 F0 3E C4        	        CALL    F_Set_LCD_Column_Addr
0000AF8A 40 F0 C0 C4        	        call	F_Read_Lcd_data				//read data on lcd
0000AF8C 0B B7 00 FF        	        r3&=0xff00
0000AF8E 1B D7 09 00        	        [image_lcd_data]=r3
0000AF90 12 95 04 00        	        R2 = [image_jumpoff_point_x]
0000AF92 40 F0 3E C4        	        CALL    F_Set_LCD_Column_Addr
0000AF94 13 97 0C 00        			r3=[image_tab_pointer]
0000AF96 88 D2              			push r1 to [sp]
0000AF97 11 93 5E 00        			r1=[sign]
0000AF99 48 B2              			r1&=sign_zk_bank //0x008
0000AF9A 04 5E              			jz image_process_bank_1
0000AF9B 16 AD 00 00        			sr|=[bank]						//
0000AF9D E3 96              			r3=d:[r3]
0000AF9E 01 EE              			jmp	image_process_bank_2
                            	image_process_bank_1:	
0000AF9F C3 96              			r3=[r3]
                            	image_process_bank_2:
0000AFA0 88 90              			pop  r1 from  [sp]	
0000AFA1 41 08              			r4+=0x01
0000AFA2 12 95 08 00        			r2=[image_bit]						//analyze place of image
0000AFA4 44 44              			cmp	r2,0x04							//split data of image begin
0000AFA5 05 9E              			ja image_split_1_1
                            	image_split_1_2:
0000AFA6 40 44              			cmp r2 ,0x00
0000AFA7 0A 5E              			je	image_split_1_3
0000AFA8 43 97              			r3=r3 lsl 0x01		
0000AFA9 41 24              			r2-=0x01
0000AFAA 45 EE              			jmp	image_split_1_2
                            	image_split_1_1:
0000AFAB 5B 97              			r3=r3 lsl 0x04
0000AFAC 44 24              			r2-=0x04
                            	image_split_1_4:	
0000AFAD 40 44              			cmp r2 ,0x00
0000AFAE 03 5E              			je	image_split_1_3
0000AFAF 43 97              			r3=r3 lsl 0x01
0000AFB0 41 24              			r2-=0x01
0000AFB1 45 EE              			jmp	image_split_1_4
                            	image_split_1_3:
0000AFB2 1B D7 0A 00        			[image_temp_data]=r3				//split data of image end
                            			//r3&=0xff00
                            		
0000AFB4 0B B7 00 FF        			r3&=0xff00
0000AFB6 11 93 5D 00        			r1=[R_GraphicMode_temp]
0000AFB8 09 B3 C0 01        			r1&=0x001c0
                            	image_process_cover_frist:	
0000AFBA 03 4E              			jnz	image_process_xor_frist
0000AFBB 13 A7 09 00        			r3|=[image_lcd_data]				//or data on lcd
                            			
0000AFBD 0A EE              			jmp	image_proc_mod_frist_end
                            	image_process_xor_frist:
0000AFBE 09 43 00 01        			cmp	r1,0x0100
0000AFC0 03 5E              			je	image_process_clear_frist
0000AFC1 13 87 09 00        			r3^=[image_lcd_data]				//xor data on lcd
0000AFC3 04 EE              			jmp	image_proc_mod_frist_end
                            	image_process_clear_frist:		
0000AFC4 0B 87 00 FF        			r3^=0xff00
0000AFC6 13 B7 09 00        			r3&=[image_lcd_data]
                            	image_proc_mod_frist_end:
                            				
                            			//r3|=[image_lcd_data]		
0000AFC8 7B 97              			r3=r3 lsr 0x04
0000AFC9 7B 97              			r3=r3 lsr 0x04
0000AFCA 40 F0 EE C4        			call	F_Display_point				//display frist part  data
                            			
0000AFCC 11 93 07 00        			R1 = [image_page]
0000AFCE 41 22              			r1-=0x01 
0000AFCF 48 42              			cmp	r1,0x08							//if overstep area
0000AFD0 02 0E              			jb	  image_second_begin
0000AFD1 80 FE FD AF        			goto	image_process_end
                            	image_second_begin:		
0000AFD3 40 F0 15 C4        	        CALL    F_Set_LCD_Page_No
0000AFD5 12 95 04 00        	        R2 = [image_jumpoff_point_x]                
0000AFD7 40 F0 3E C4        	        CALL    F_Set_LCD_Column_Addr
0000AFD9 40 F0 C0 C4        	        call	F_Read_Lcd_data				//read data on lcd
0000AFDB 0B B7 00 FF        	        r3&=0xff00
0000AFDD 7B 97              	        r3=r3 lsr 0x04
0000AFDE 7B 97              	        r3=r3 lsr 0x04
0000AFDF 1B D7 09 00        	        [image_lcd_data]=r3
0000AFE1 12 95 04 00        	        R2 = [image_jumpoff_point_x]
0000AFE3 40 F0 3E C4        	        CALL    F_Set_LCD_Column_Addr
0000AFE5 13 97 0A 00        			r3=[image_temp_data]
                            			//r3|=[image_lcd_data]
0000AFE7 0B B7 FF 00        			r3&=0x00ff	
                            			
0000AFE9 11 93 5D 00        			r1=[R_GraphicMode_temp]
0000AFEB 09 B3 C0 01        			r1&=bmp_mode_bit
                            	image_process_cover_second:	
0000AFED 03 4E              			jne	image_process_xor_second
0000AFEE 13 A7 09 00        			r3|=[image_lcd_data]				//or data on lcd
                            	//		[image_temp_data1]=r3
0000AFF0 0A EE              			jmp	image_proc_mod_second_end
                            	image_process_xor_second:
0000AFF1 09 43 00 01        			cmp	r1,0x0100
0000AFF3 03 5E              			je	image_process_clear_second
0000AFF4 13 87 09 00        			r3^=[image_lcd_data]				//xor data on lcd
0000AFF6 04 EE              			jmp	image_proc_mod_second_end
                            	image_process_clear_second:		
0000AFF7 0B 87 FF 00        			r3^=0x00ff
0000AFF9 13 B7 09 00        			r3&=[image_lcd_data]
                            	image_proc_mod_second_end:	
0000AFFB 40 F0 EE C4        			call	F_Display_point				//display remanent part  data
                            	image_process_end:	
0000AFFD 11 93 04 00        			r1=[image_jumpoff_point_x]
0000AFFF 41 22              			r1-=0x01
0000B000 19 D3 04 00        			[image_jumpoff_point_x]=r1
0000B002 13 97 0C 00        			r3=[image_tab_pointer]
0000B004 13 07 02 00        			r3+=[image_width_byte]
0000B006 1B D7 0C 00        			[image_tab_pointer]=r3
0000B008 14 49 03 00        			cmp	r4,[image_high_bit]
0000B00A 02 5E              			je	image_process_complete				//if display complete 
0000B00B 80 FE 7F AF        			goto	image_display_eightrow_begin
                            	image_process_complete:		
0000B00D 90 9A              			retf
                            	
                            	//////////////////////////////////////////////////////////////////////////////  
                            	//R_GraphicMode:
                            	//		1 byte for graphic mode.
                            	//
                            	//		Bit7,6:	Bitmap/Char/String
                            	//						00:COVER		;Default Mode
                            	//						01:AND
                            	//						10:OR
                            	//						11:XOR
                            	//		Bit5:	(unused)
                            	//		Bit4,3:	Rect/Line/Pixel
                            	//					 	00:SOLID_COVER	;Default (Bar) Mode
                            	//					 	01:DOTTED_COVER
                            	//				     	10:SOLID_XOR
                            	//				     	11:DOTTED_XOR
                            	//
                            	//		Bit2:	Pixel Toggle
                            	//						0:COVER(black)(default)
                            	//						1:ERASE(white)
                            	//
                            	//					(Toggle Bit for Dotted Line Mode)
                            	//					IF bit3=1, that is dotted mode
                            	//					then bit2 will be toggled between pixels
                            	//					IF bit3=0 then no toggle occured
                            	
                            	//		Bit1:	(unused)
                            	//		Bit0:	Swapping Flag for LineTo
                            	//		@
                            	
                            	//X0: 1 byte x-coordinate of current point (CP).
                            	//Y0: 1 byte y-coordinate of CP.	
                            	.external		R_GraphicMode
                            	.external		_x0
                            	.external		_y0
                            	///////////////////////////////////////////////////////////////////
                            	//Function Name: FG_InitGraphic
                            	//Parameters:
                            	//Description: Initializing LCD graphics parameters
                            	//Destroy:r1,r2,f3
                            	//Memory Modified:
                            	//Usage: FG_InitGraphic()
                            	//Example:
                            	//	FG_InitGraphic()
                            	///////////////////////////////////////////////////////////////////
                            	.public		_FG_InitGraphic
                            	_FG_InitGraphic:		.proc
0000B00E 40 F0 09 C5        			call	_Init_IO		//Initial i/o
0000B010 40 F0 21 C3        			call	_Init_LCD_501	//Initial SPLC501
0000B012 40 92              			r1=0x00
0000B013 19 D3 5D 00        			[R_GraphicMode_temp]=r1
0000B015 19 D3 5E 00        			[sign]=r1
0000B017 19 D3 A1 00        			[_x0]=r1
0000B019 19 D3 A2 00        			[_y0]=r1
0000B01B 90 9A              			retf
                            			.endp
                            			
                            	///////////////////////////////////////////////////////////////////
                            	//Function Name: FG_ClearScreen
                            	//Parameters: DG_CLS_ERASE(default), DG_CLS_FILL
                            	//Description: Clear LCD screen with 0 or 1.
                            	//Destroy: r1,r2,r3,r4
                            	//Memory Modified: None
                            	//Usage: 	FG_ClearScreen(short arg)
                            	//Example:
                            	//	FG_ClearScreen()
                            	//	FG_ClearScreen(DG_CLS_FILL)
                            	///////////////////////////////////////////////////////////////////
                            	.public		_FG_ClearScreen
                            	_FG_ClearScreen:		.proc
0000B01C 88 DA              			PUSH BP,BP TO [SP]
0000B01D 00 93              			r1=sp
0000B01E 05 95              			r2=bp
0000B01F 01 25              			r2-=r1
0000B020 44 44              			cmp	r2,0x04
0000B021 06 5E              			je	clearscreen
0000B022 00 9B              			bp=sp
0000B023 44 0A              			bp+=0x04
0000B024 C5 92              			r1=[bp]
0000B025 40 42              			cmp	r1,0x00
0000B026 01 5E              			je	clearscreen
0000B027 02 EE              			jmp	fillscreen
                            	clearscreen:
0000B028 40 96              			r3=0x0000
0000B029 02 EE              			jmp	fillaction
                            	fillscreen:		
0000B02A 0B 97 00 FF        			r3=0xff00
                            	fillaction:
0000B02C 40 F0 74 C4        			call	F_Fill_All_LCD_Value	
0000B02E 88 98              			pop	bp,bp from	[sp]
0000B02F 90 9A              			retf
                            			.endp
                            	///////////////////////////////////////////////////////////////////		
                            	//Function Name:	FG_GetBMPMode
                            	//				FG_GetLineStyle
                            	//				FG_GetRectStyle
                            	//				FG_GetCircleStyle
                            	//				FG_GetEllipseStyle
                            	//				FG_GetCharMode
                            	//Description: Get current graphic mode.
                            	//Destroy: r1
                            	//Memory Modified: 
                            	//Usage:
                            	//	FG_GetBMPMode()
                            	//	FG_GetLineStyle()
                            	//	FG_GetRectStyle()
                            	//	FG_GetCircleStyle()
                            	//	FG_GetEllipseStyle()
                            	//	FG_GetCharMode()
                            	///////////////////////////////////////////////////////////////////
                            	.public		_FG_GetBMPMode
                            	_FG_GetBMPMode:		.proc
0000B030 88 DA              		PUSH BP,BP TO [SP]
0000B031 11 93 5D 00        		r1=[R_GraphicMode_temp]
0000B033 09 B3 3F FE        		r1&=bmp_mode_bit_clear
0000B035 19 D3 5D 00        		[R_GraphicMode_temp]=r1
0000B037 11 93 A0 00        		r1=[R_GraphicMode]
0000B039 09 B3 C0 01        		r1&=bmp_mode_bit
0000B03B 11 A3 5D 00        		r1|=[R_GraphicMode_temp]
0000B03D 19 D3 5D 00        		[R_GraphicMode_temp]=r1
0000B03F 88 98              		pop	bp,bp from	[sp]
0000B040 90 9A              		retf
                            		.endp
                            	//*****************************************************************
                            	.public		_FG_GetLineStyle
                            	_FG_GetLineStyle:		.proc
0000B041 88 DA              		PUSH BP,BP TO [SP]
0000B042 11 93 5D 00        		r1=[R_GraphicMode_temp]
0000B044 09 B3 C3 FF        		r1&=dotted_mode_bit_clear
0000B046 19 D3 5D 00        		[R_GraphicMode_temp]=r1
0000B048 11 93 A0 00        		r1=[R_GraphicMode]
0000B04A 7C B2              		r1&=dotted_mode_bit
0000B04B 11 A3 5D 00        		r1|=[R_GraphicMode_temp]
0000B04D 19 D3 5D 00        		[R_GraphicMode_temp]=r1
0000B04F 88 98              		pop	bp,bp from	[sp]
0000B050 90 9A              		retf
                            		.endp
                            	//*****************************************************************
                            	.public		_FG_GetRectStyle
                            	_FG_GetRectStyle:		.proc
0000B051 40 F0 41 B0        		call	_FG_GetLineStyle
0000B053 90 9A              		retf
                            		.endp
                            	//*****************************************************************
                            	.public		_FG_GetCircleStyle
                            	_FG_GetCircleStyle:		.proc
0000B054 40 F0 41 B0        		call	_FG_GetLineStyle
0000B056 90 9A              		retf
                            		.endp
                            	//*****************************************************************
                            	.public		_FG_GetEllipseStyle
                            	_FG_GetEllipseStyle:		.proc
0000B057 40 F0 41 B0        		call	_FG_GetLineStyle
0000B059 90 9A              		retf
                            		.endp
                            	//*****************************************************************
                            	.public		_FG_GetCharMode
                            	_FG_GetCharMode:		.proc
0000B05A 40 F0 30 B0        		call	_FG_GetBMPMode
0000B05C 90 9A              		retf
                            		.endp
                            	///////////////////////////////////////////////////////////////////
                            	//Function Name: FG_SetBMPMode
                            	//Parameters: Mode
                            	//Description: Set bitmap put style.
                            	//Mode: DG_BMP_COVER(default)
                            	//      DG_BMP_and
                            	//      DG_BMP_XOR
                            	//Destroy: r1,r2
                            	//Memory Modified: R_GraphicMode
                            	//Usage:
                            	//	FG_SetBMPMode(short Mode)
                            	//Example:
                            	//	FG_SetBMPMode(DG_BMP_clear)
                            	///////////////////////////////////////////////////////////////////
                            	.public	_FG_SetBMPMode
                            	_FG_SetBMPMode:		.proc
0000B05D 88 DA              			PUSH BP,BP TO [SP]
0000B05E 00 93              			r1=sp
0000B05F 05 95              			r2=bp
0000B060 01 25              			r2-=r1
0000B061 44 44              			cmp	r2,0x04
0000B062 05 5E              			je	L_no_SetBMPMode_Parameters				//parmeters?
0000B063 00 9B              			bp=sp
0000B064 44 0A              			bp+=0x04
0000B065 C5 92              			r1=[bp]							//get parmeters
0000B066 40 42              			cmp	r1,DG_BMP_COVER
0000B067 07 4E              			jne	L_SetBMPMode_1_Parameters
                            	L_SetBMPMode_0_Parameters:		
                            	L_no_SetBMPMode_Parameters:
0000B068 11 93 A0 00        			r1=[R_GraphicMode]
0000B06A 09 B3 3F FE        			r1&=bmp_mode_bit_clear
0000B06C 19 D3 A0 00        			[R_GraphicMode]=r1
0000B06E 15 EE              			jmp	l_SetBMPMode_end
                            	L_SetBMPMode_1_Parameters:
0000B06F 41 42              			cmp	r1,DG_BMP_CLEAR
0000B070 09 4E              			jne	L_SetBMPMode_2_Parameters		
0000B071 11 93 A0 00        			r1=[R_GraphicMode]
0000B073 09 B3 3F FE        			r1&=bmp_mode_bit_clear
0000B075 09 A3 00 01        			r1|=BMP_mode_CLEAR
0000B077 19 D3 A0 00        			[R_GraphicMode]=r1
0000B079 0A EE              			jmp	l_SetBMPMode_end
                            	L_SetBMPMode_2_Parameters:
0000B07A 42 42              			cmp	r1,DG_BMP_XOR
0000B07B 08 4E              			jne	l_SetBMPMode_end		
0000B07C 11 93 A0 00        			r1=[R_GraphicMode]
0000B07E 09 B3 3F FE        			r1&=bmp_mode_bit_clear
0000B080 09 A3 C0 00        			r1|=BMP_mode_XOR
0000B082 19 D3 A0 00        			[R_GraphicMode]=r1		
                            	l_SetBMPMode_end:
0000B084 40 F0 30 B0        			call	_FG_GetBMPMode	
0000B086 88 98              			pop	bp,bp from	[sp]
0000B087 90 9A              			retf
                            			.endp
                            	//*****************************************************************
                            	.public	_FG_SetCharMode
                            	_FG_SetCharMode:
0000B088 80 FE 5D B0        			goto	_FG_SetBMPMode
                            	//*****************************************************************
                            	.public	_FG_SetLineStyle
                            	_FG_SetLineStyle:
0000B08A 88 DA              			PUSH BP,BP TO [SP]
0000B08B 00 93              			r1=sp
0000B08C 05 95              			r2=bp
0000B08D 01 25              			r2-=r1
0000B08E 44 44              			cmp	r2,0x04
0000B08F 05 5E              			je	L_no_SetLineMode_Parameters	//parmeters?
0000B090 00 9B              			bp=sp
0000B091 44 0A              			bp+=0x04
0000B092 C5 92              			r1=[bp]							//get parmeters
                            	L_cover_SetLineMode_Parameters:		
0000B093 40 42              			cmp	r1,DG_LINE_COVER
0000B094 06 4E              			jne	L_erase_SetLineMode_Parameters
                            	L_no_SetLineMode_Parameters:
0000B095 11 93 A0 00        			r1=[R_GraphicMode]
0000B097 09 B3 C7 FF        			r1&=line_mode_bit_clear
0000B099 19 D3 A0 00        			[R_GraphicMode]=r1
                            	L_erase_SetLineMode_Parameters:		
0000B09B 41 42              			cmp	r1,DG_LINE_ERASE
0000B09C 08 4E              			jne L_solid_SetLineMode_Parameters
0000B09D 11 93 A0 00        			r1=[R_GraphicMode]
0000B09F 09 B3 C7 FF        			r1&=line_mode_bit_clear
0000B0A1 48 A2              			r1|=line_mode_ERASE
0000B0A2 19 D3 A0 00        			[R_GraphicMode]=r1
0000B0A4 3B EE              			jmp	l_SetLineMode_end
                            	L_solid_SetLineMode_Parameters:
0000B0A5 42 42              			cmp	r1,DG_LINE_HOLLOW
0000B0A6 08 4E              			jne L_dotted_SetLineMode_Parameters
0000B0A7 11 93 A0 00        			r1=[R_GraphicMode]
0000B0A9 09 B3 C7 FF        			r1&=line_mode_bit_clear
0000B0AB 50 A2              			r1|=line_mode_HOLLOW
0000B0AC 19 D3 A0 00        			[R_GraphicMode]=r1
0000B0AE 31 EE              			jmp	l_SetLineMode_end
                            	L_dotted_SetLineMode_Parameters:
0000B0AF 43 42              			cmp	r1,DG_LINE_DOTTED
0000B0B0 08 4E              			jne L_solid_cover_SetLineMode
0000B0B1 11 93 A0 00        			r1=[R_GraphicMode]
0000B0B3 09 B3 C7 FF        			r1&=line_mode_bit_clear
0000B0B5 58 A2              			r1|=line_mode_DOTTED
0000B0B6 19 D3 A0 00        			[R_GraphicMode]=r1
0000B0B8 27 EE              			jmp	l_SetLineMode_end
                            	L_solid_cover_SetLineMode:
0000B0B9 44 42              			cmp	r1,DG_LINE_HOLLOW_ERASE
0000B0BA 08 4E              			jne L_dotted_cover_SetLineMode
0000B0BB 11 93 A0 00        			r1=[R_GraphicMode]
0000B0BD 09 B3 C7 FF        			r1&=line_mode_bit_clear
0000B0BF 60 A2              			r1|=line_mode_HOLLOW_ERASE
0000B0C0 19 D3 A0 00        			[R_GraphicMode]=r1
0000B0C2 1D EE              			jmp	l_SetLineMode_end
                            	L_dotted_cover_SetLineMode:
0000B0C3 45 42              			cmp	r1,DG_LINE_DOTTED_COVER
0000B0C4 08 4E              			jne L_solid_xor_SetLineMode
0000B0C5 11 93 A0 00        			r1=[R_GraphicMode]
0000B0C7 09 B3 C7 FF        			r1&=line_mode_bit_clear
0000B0C9 68 A2              			r1|=line_mode_DOTTED_COVER
0000B0CA 19 D3 A0 00        			[R_GraphicMode]=r1
0000B0CC 13 EE              			jmp	l_SetLineMode_end
                            	L_solid_xor_SetLineMode:
0000B0CD 46 42              			cmp	r1,DG_LINE_SOLID_XOR
0000B0CE 08 4E              			jne L_dotted_xor_SetLineMode
0000B0CF 11 93 A0 00        			r1=[R_GraphicMode]
0000B0D1 09 B3 C7 FF        			r1&=line_mode_bit_clear
0000B0D3 70 A2              			r1|=line_mode_SOLID_XOR
0000B0D4 19 D3 A0 00        			[R_GraphicMode]=r1
0000B0D6 09 EE              			jmp	l_SetLineMode_end
                            	L_dotted_xor_SetLineMode:
0000B0D7 47 42              			cmp	r1,DG_LINE_DOTTED_XOR
0000B0D8 07 4E              			jne l_SetLineMode_end
0000B0D9 11 93 A0 00        			r1=[R_GraphicMode]
0000B0DB 09 B3 C7 FF        			r1&=line_mode_bit_clear
0000B0DD 78 A2              			r1|=line_mode_DOTTED_XOR
0000B0DE 19 D3 A0 00        			[R_GraphicMode]=r1				
                            	l_SetLineMode_end:
0000B0E0 40 F0 41 B0        			call	_FG_GetLineStyle	
0000B0E2 88 98              			pop	bp,bp from	[sp]
0000B0E3 90 9A              			retf
                            	//*****************************************************************
                            	.public	_FG_SetRectStyle
                            	_FG_SetRectStyle:
0000B0E4 80 FE 8A B0        			goto _FG_SetLineStyle
                            	//*****************************************************************
                            	.public	_FG_SetCircleStyle
                            	_FG_SetCircleStyle:
0000B0E6 80 FE 8A B0        			goto _FG_SetLineStyle
                            	//*****************************************************************
                            	.public	_FG_SetEllipseStyle
                            	_FG_SetEllipseStyle:
0000B0E8 80 FE 8A B0        			goto _FG_SetLineStyle
                            	//*****************************************************************
                            	FG_SetMode:		.proc
                            	L_SetMode_cover_Parameters:
0000B0EA 40 42              			cmp	r1,DG_PIXEL_COVER
0000B0EB 07 4E              			jne	L_SetMode_clear_Parameters
0000B0EC 11 93 5D 00        			r1=[R_GraphicMode_temp]
0000B0EE 09 B3 C7 FF        			r1&=line_mode_bit_clear
0000B0F0 19 D3 5D 00        			[R_GraphicMode_temp]=r1
0000B0F2 13 EE              			jmp	l_SetMode_end
                            	L_SetMode_clear_Parameters:	
0000B0F3 41 42              			cmp	r1,DG_PIXEL_CLEAR
0000B0F4 08 4E              			jne	L_xor_Parameters
0000B0F5 11 93 5D 00        			r1=[R_GraphicMode_temp]
0000B0F7 09 B3 C7 FF        			r1&=line_mode_bit_clear
0000B0F9 48 A2              			r1|=pixel_mode_CLEAR
0000B0FA 19 D3 5D 00        			[R_GraphicMode_temp]=r1				
0000B0FC 09 EE              			jmp	l_SetMode_end
                            	L_xor_Parameters:		
0000B0FD 42 42              			cmp	r1,DG_PIXEL_XOR
0000B0FE 07 4E              			jne	l_SetMode_end
0000B0FF 11 93 5D 00        			r1=[R_GraphicMode_temp]
0000B101 09 B3 C7 FF        			r1&=line_mode_bit_clear
0000B103 70 A2              			r1|=pixel_mode_XOR
0000B104 19 D3 5D 00        			[R_GraphicMode_temp]=r1
                            	l_SetMode_end:
0000B106 90 9A              			retf
                            			.endp
                            	//*****************************************************************
                            	FG_SetStyle:
                            	L_cover_SetStyle_Parameters:
0000B107 40 42              			cmp	r1,DRAW_COVER
0000B108 06 4E              			jne	L_erase_SetStyle_Parameters
0000B109 11 93 5D 00        			r1=[R_GraphicMode_temp]
0000B10B 09 B3 C7 FF        			r1&=line_mode_bit_clear
0000B10D 19 D3 5D 00        			[R_GraphicMode_temp]=r1
                            	L_erase_SetStyle_Parameters:		
0000B10F 41 42              			cmp	r1,DRAW_ERASE
0000B110 08 4E              			jne L_solid_SetStyle_Parameters
0000B111 11 93 5D 00        			r1=[R_GraphicMode_temp]
0000B113 09 B3 C7 FF        			r1&=line_mode_bit_clear
0000B115 48 A2              			r1|=draw_mode_ERASE
0000B116 19 D3 5D 00        			[R_GraphicMode_temp]=r1
0000B118 3B EE              			jmp	l_SetStyle_end
                            	L_solid_SetStyle_Parameters:
0000B119 42 42              			cmp	r1,DRAW_HOLLOW
0000B11A 08 4E              			jne L_dotted_SetStyle_Parameters
0000B11B 11 93 5D 00        			r1=[R_GraphicMode_temp]
0000B11D 09 B3 C7 FF        			r1&=line_mode_bit_clear
0000B11F 50 A2              			r1|=draw_mode_HOLLOW
0000B120 19 D3 5D 00        			[R_GraphicMode_temp]=r1
0000B122 31 EE              			jmp	l_SetStyle_end
                            	L_dotted_SetStyle_Parameters:
0000B123 43 42              			cmp	r1,DRAW_DOTTED
0000B124 08 4E              			jne L_solid_cover_SetStyle
0000B125 11 93 5D 00        			r1=[R_GraphicMode_temp]
0000B127 09 B3 C7 FF        			r1&=line_mode_bit_clear
0000B129 58 A2              			r1|=draw_mode_DOTTED
0000B12A 19 D3 5D 00        			[R_GraphicMode_temp]=r1
0000B12C 27 EE              			jmp	l_SetStyle_end
                            	L_solid_cover_SetStyle:
0000B12D 44 42              			cmp	r1,DRAW_HOLLOW_ERASE
0000B12E 08 4E              			jne L_dotted_cover_SetStyle
0000B12F 11 93 5D 00        			r1=[R_GraphicMode_temp]
0000B131 09 B3 C7 FF        			r1&=line_mode_bit_clear
0000B133 60 A2              			r1|=draw_mode_HOLLOW_ERASE
0000B134 19 D3 5D 00        			[R_GraphicMode_temp]=r1
0000B136 1D EE              			jmp	l_SetStyle_end
                            	L_dotted_cover_SetStyle:
0000B137 45 42              			cmp	r1,DRAW_DOTTED_COVER
0000B138 08 4E              			jne L_solid_xor_SetStyle
0000B139 11 93 5D 00        			r1=[R_GraphicMode_temp]
0000B13B 09 B3 C7 FF        			r1&=line_mode_bit_clear
0000B13D 68 A2              			r1|=draw_mode_DOTTED_COVER
0000B13E 19 D3 5D 00        			[R_GraphicMode_temp]=r1
0000B140 13 EE              			jmp	l_SetStyle_end
                            	L_solid_xor_SetStyle:
0000B141 46 42              			cmp	r1,DRAW_SOLID_XOR
0000B142 08 4E              			jne L_dotted_xor_SetStyle
0000B143 11 93 5D 00        			r1=[R_GraphicMode_temp]
0000B145 09 B3 C7 FF        			r1&=line_mode_bit_clear
0000B147 70 A2              			r1|=draw_mode_SOLID_XOR
0000B148 19 D3 5D 00        			[R_GraphicMode_temp]=r1
0000B14A 09 EE              			jmp	l_SetStyle_end
                            	L_dotted_xor_SetStyle:
0000B14B 47 42              			cmp	r1,DRAW_DOTTED_XOR
0000B14C 07 4E              			jne l_SetStyle_end
0000B14D 11 93 5D 00        			r1=[R_GraphicMode_temp]
0000B14F 09 B3 C7 FF        			r1&=line_mode_bit_clear
0000B151 78 A2              			r1|=line_mode_bit
0000B152 19 D3 5D 00        			[R_GraphicMode_temp]=r1				
                            	l_SetStyle_end:
0000B154 90 9A              			retf
                            	///////////////////////////////////////////////////////////////////
                            	//Function Name: FG_PutBitmap
                            	//Parameters: BmpX,BmpY,BmpNum,Mode
                            	//Description: Print a bitmap at (BmpX,BmpY) with assigned mode.
                            	//Mode:
                            	//	DG_BMP_COVER(default)
                            	//	DG_BMP_clear
                            	//	DG_BMP_XOR
                            	//Destroy: r1,r2,r3,r4
                            	//Usage: FG_PutBitmap(short BmpNum,short BmpX,short BmpY,short Mode)
                            	//Example:
                            	//	FG_PutBitmap(0,10,tab,DG_BMP_COVER)
                            	//	FG_PutBitmap(1,10,tab)
                            	//	FG_PutBitmap(tab,DG_BMP_XOR)
                            	//	FG_PutBitmap(tab)
                            	///////////////////////////////////////////////////////////////////
                            	.external		bp_temp
                            	.external		R_GraphicMode_temp
                            	.external		_TAB_0
                            	.external		sign
                            	//-----------------------------------
                            	.public			_FG_PutBitmap
                            	_FG_PutBitmap:		.proc
0000B155 88 DA              			PUSH BP,BP TO [SP]
0000B156 00 93              			r1=sp
0000B157 05 95              			r2=bp
0000B158 1A D5 5C 00        			[bp_temp]=r2
0000B15A 01 25              			r2-=r1
0000B15B A0 D8              			push r1,r4 to [sp]
0000B15C 40 F0 91 B1        			call _F_image_bank
0000B15E A0 90              			pop r1,r4 from [sp]
                            	L_PutBitmap_Parameters_none:
0000B15F 44 44              			cmp	r2,0x04
0000B160 2E 5E              			je	L_no_PutBitmap_Parameters
                            	L_PutBitmap_Parameters_one:
0000B161 45 44              			cmp	r2,0x05
0000B162 03 4E              			jne	L_PutBitmap_Parameters_two
0000B163 40 F0 A3 B1        			call	F_PutBitmap_Parameters_one
0000B165 0E EE              			jmp		L_PutBitmap
                            	L_PutBitmap_Parameters_two:		
0000B166 46 44              			cmp	r2,0x06
0000B167 03 4E              			jne	L_PutBitmap_Parameters_three
0000B168 40 F0 CF B1        			call	F_PutBitmap_Parameters_two
0000B16A 09 EE              			jmp		L_PutBitmap
                            	L_PutBitmap_Parameters_three:
0000B16B 47 44              			cmp	r2,0x07
0000B16C 03 4E              			jne	L_PutBitmap_Parameters_four
0000B16D 40 F0 06 B2        			call	F_PutBitmap_Parameters_three
0000B16F 04 EE              			jmp		L_PutBitmap
                            	L_PutBitmap_Parameters_four:
0000B170 48 44              			cmp	r2,0x08
0000B171 47 4E              			jne	L_PutBitmap_Parameters_three
0000B172 40 F0 32 B2        			call	F_PutBitmap_Parameters_four
                            	L_PutBitmap:
0000B174 11 93 5E 00        			r1=[sign]
0000B176 49 A2              			r1|=0x09
0000B177 19 D3 5E 00        			[sign]=r1
                            		//	CALL	F_image_bank
0000B179 40 F0 40 AF        			call	F_image
0000B17B 11 93 5E 00        			r1=[sign]
0000B17D 09 B3 F7 FF        			r1&=0xfff7
0000B17F 19 D3 5E 00        			[sign]=r1
0000B181 11 93 5D 00        			r1=[R_GraphicMode_temp]
0000B183 09 B3 3F FE        			r1&=bmp_mode_bit_clear
0000B185 19 D3 5D 00        			[R_GraphicMode_temp]=r1
0000B187 11 93 A0 00        			r1=[R_GraphicMode]
0000B189 09 B3 C0 01        			r1&=bmp_mode_bit
0000B18B 11 A3 5D 00        			r1|=[R_GraphicMode_temp]
0000B18D 19 D3 5D 00        			[R_GraphicMode_temp]=r1
                            				
                            	L_no_PutBitmap_Parameters:			
0000B18F 88 98              			POP	BP,BP FROM [SP]
0000B190 90 9A              			retf
                            			.endp
                            	/////////////////////////////////	
                            	.external  picture_data
                            	.external  bank
                            	.public		_F_image_bank
                            	_F_image_bank:
0000B191 40 98              			r4=0x00
                            			//////
0000B192 06 95              			r2=sr
0000B193 0A B5 FF 03        			r2&=0x03ff
0000B195 44 02              			r1+=0x04
0000B196 C1 92              			r1=[r1]
                            	F_image_bank_loop:		
0000B197 02 9D              			sr=r2
0000B198 E1 96              			r3=D:[r1]
0000B199 01 47              			cmp r3,r1
0000B19A 05 5E              			je F_image_bank_0
0000B19B 0C 09 00 04        			r4+=0x0400
0000B19D 0A 05 00 04        			r2+=0x0400
0000B19F 49 EE              			jmp F_image_bank_loop
                            	F_image_bank_0:	
0000B1A0 1C D9 00 00        			[bank]=r4
0000B1A2 90 9A              			retf
                            	//----------------------------------------------------------------
                            	F_PutBitmap_Parameters_one:
0000B1A3 12 95 5C 00        			r2=[bp_temp]
0000B1A5 41 24              			r2-=0x01
0000B1A6 C2 92              			r1=[r2]
0000B1A7 41 02              			r1+=0x01
0000B1A8 19 D3 06 00        			[image_tab]=r1
0000B1AA 11 93 A1 00        			r1=[_x0]
0000B1AC 19 D3 04 00        			[image_jumpoff_point_x]=r1
0000B1AE 11 93 A2 00        			r1=[_y0]
0000B1B0 19 D3 05 00        			[image_jumpoff_point_y]=r1
0000B1B2 11 93 5D 00        			r1=[R_GraphicMode_temp]
0000B1B4 09 B3 3F FE        			r1&=bmp_mode_bit_clear
0000B1B6 19 D3 5D 00        			[R_GraphicMode_temp]=r1
0000B1B8 11 93 A0 00        			r1=[R_GraphicMode]
0000B1BA 09 B3 C0 01        			r1&=bmp_mode_bit
0000B1BC 11 A3 5D 00        			r1|=[R_GraphicMode_temp]
0000B1BE 19 D3 5D 00        			[R_GraphicMode_temp]=r1
                            			
0000B1C0 12 95 06 00        			r2=[image_tab]
0000B1C2 42 24              			r2-=0x02
0000B1C3 16 AD 00 00        			sr|=[bank]
0000B1C5 E2 92              			r1=d:[r2]
0000B1C6 19 D3 03 00        			[image_high_bit]=r1
0000B1C8 12 95 06 00        			r2=[image_tab]
0000B1CA 43 24              			r2-=0x03
0000B1CB E2 92              			r1=d:[r2]
0000B1CC 19 D3 02 00        			[image_width_byte]=r1
0000B1CE 90 9A              			retf
                            	//----------------------------------------------------------------
                            	F_PutBitmap_Parameters_two:
0000B1CF 11 93 5D 00        			r1=[R_GraphicMode_temp]
0000B1D1 09 B3 3F FE        			r1&=bmp_mode_bit_clear
0000B1D3 19 D3 5D 00        			[R_GraphicMode_temp]=r1
0000B1D5 12 95 5C 00        			r2=[bp_temp]
0000B1D7 41 24              			r2-=0x01
0000B1D8 C2 92              			r1=[r2]
                            	F_Put_Para_two_1:	
0000B1D9 41 42              			cmp	r1,DG_BMP_CLEAR
0000B1DA 07 4E              			jne	F_Put_Para_two_2
0000B1DB 11 93 5D 00        			r1=[R_GraphicMode_temp]
0000B1DD 09 A3 00 01        			r1|=BMP_mode_CLEAR
0000B1DF 19 D3 5D 00        			[R_GraphicMode_temp]=r1
0000B1E1 08 EE              			jmp	F_Put_Para_two_0
                            	F_Put_Para_two_2:
0000B1E2 42 42              			cmp	r1,DG_BMP_XOR
0000B1E3 06 4E              			jne	F_Put_Para_two_0
0000B1E4 11 93 5D 00        			r1=[R_GraphicMode_temp]
0000B1E6 09 A3 C0 00        			r1|=BMP_mode_XOR
0000B1E8 19 D3 5D 00        			[R_GraphicMode_temp]=r1
                            	F_Put_Para_two_0:				
0000B1EA 41 24              			r2-=0x01
0000B1EB C2 92              			r1=[r2]
0000B1EC 41 02              			r1+=0x01
0000B1ED 19 D3 06 00        			[image_tab]=r1
0000B1EF 11 93 A1 00        			r1=[_x0]
0000B1F1 19 D3 04 00        			[image_jumpoff_point_x]=r1
0000B1F3 11 93 A2 00        			r1=[_y0]
0000B1F5 19 D3 05 00        			[image_jumpoff_point_y]=r1
0000B1F7 16 AD 00 00        			sr|=[bank]
0000B1F9 12 95 06 00        			r2=[image_tab]
0000B1FB 42 24              			r2-=0x02
0000B1FC E2 92              			r1=d:[r2]
0000B1FD 19 D3 03 00        			[image_high_bit]=r1
0000B1FF 12 95 06 00        			r2=[image_tab]
0000B201 43 24              			r2-=0x03
0000B202 E2 92              			r1=d:[r2]
0000B203 19 D3 02 00        			[image_width_byte]=r1
0000B205 90 9A              			retf
                            	//----------------------------------------------------------------
                            	F_PutBitmap_Parameters_three:
0000B206 12 95 5C 00        			r2=[bp_temp]
0000B208 41 24              			r2-=0x01
0000B209 C2 92              			r1=[r2]
0000B20A 19 D3 05 00        			[image_jumpoff_point_y]=r1
0000B20C 41 24              			r2-=0x01
0000B20D C2 92              			r1=[r2]
0000B20E 19 D3 04 00        			[image_jumpoff_point_x]=r1
0000B210 41 24              			r2-=0x01
0000B211 C2 92              			r1=[r2]
0000B212 41 02              			r1+=0x01
0000B213 19 D3 06 00        			[image_tab]=r1
                            		
0000B215 11 93 5D 00        			r1=[R_GraphicMode_temp]
0000B217 09 B3 3F FE        			r1&=bmp_mode_bit_clear
0000B219 19 D3 5D 00        			[R_GraphicMode_temp]=r1
0000B21B 11 93 A0 00        			r1=[R_GraphicMode]
0000B21D 09 B3 C0 01        			r1&=bmp_mode_bit
0000B21F 11 A3 5D 00        			r1|=[R_GraphicMode_temp]
0000B221 19 D3 5D 00        			[R_GraphicMode_temp]=r1
                            		
0000B223 12 95 06 00        			r2=[image_tab]
0000B225 42 24              			r2-=0x02
0000B226 16 AD 00 00        			sr|=[bank]
0000B228 E2 92              			r1=d:[r2]
0000B229 19 D3 03 00        			[image_high_bit]=r1
0000B22B 12 95 06 00        			r2=[image_tab]
0000B22D 43 24              			r2-=0x03
0000B22E E2 92              			r1=d:[r2]
0000B22F 19 D3 02 00        			[image_width_byte]=r1
0000B231 90 9A              			retf
                            	//----------------------------------------------------------------
                            	F_PutBitmap_Parameters_four:
0000B232 11 93 5D 00        			r1=[R_GraphicMode_temp]
0000B234 09 B3 3F FE        			r1&=bmp_mode_bit_clear
0000B236 19 D3 5D 00        			[R_GraphicMode_temp]=r1
0000B238 12 95 5C 00        			r2=[bp_temp]
0000B23A 41 24              			r2-=0x01
0000B23B C2 92              			r1=[r2]
                            	F_Put_Para_four_1:	
0000B23C 41 42              			cmp	r1,DG_BMP_CLEAR
0000B23D 07 4E              			jne	F_Put_Para_four_2
0000B23E 11 93 5D 00        			r1=[R_GraphicMode_temp]
0000B240 09 A3 00 01        			r1|=BMP_mode_CLEAR
0000B242 19 D3 5D 00        			[R_GraphicMode_temp]=r1
0000B244 08 EE              			jmp	F_Put_Para_four_0
                            	F_Put_Para_four_2:
0000B245 42 42              			cmp	r1,DG_BMP_XOR
0000B246 06 4E              			jne	F_Put_Para_four_0
0000B247 11 93 5D 00        			r1=[R_GraphicMode_temp]
0000B249 09 A3 C0 00        			r1|=BMP_mode_XOR
0000B24B 19 D3 5D 00        			[R_GraphicMode_temp]=r1
                            	F_Put_Para_four_0:
0000B24D 41 24              			r2-=0x01
0000B24E C2 92              			r1=[r2]
0000B24F 19 D3 05 00        			[image_jumpoff_point_y]=r1
0000B251 41 24              			r2-=0x01
0000B252 C2 92              			r1=[r2]
0000B253 19 D3 04 00        			[image_jumpoff_point_x]=r1
0000B255 41 24              			r2-=0x01
0000B256 C2 92              			r1=[r2]
0000B257 41 02              			r1+=0x01
0000B258 19 D3 06 00        			[image_tab]=r1
0000B25A 12 95 06 00        			r2=[image_tab]
0000B25C 42 24              			r2-=0x02
0000B25D 16 AD 00 00        			sr|=[bank]
0000B25F E2 92              			r1=d:[r2]
0000B260 19 D3 03 00        			[image_high_bit]=r1
0000B262 12 95 06 00        			r2=[image_tab]
0000B264 43 24              			r2-=0x03
0000B265 E2 92              			r1=d:[r2]
0000B266 19 D3 02 00        			[image_width_byte]=r1
0000B268 90 9A              			retf
                            	
                            	//////////////////////////////////////////////////////////////////////////////
                            	//Filename : _FG_LineTo
                            	//参数: _line_x0,_line_y0,_line_x1,_line_y1
                            	//Mode:	DG_LINE_COVER(default)
                            	//		DG_LINE_ERASE
                            	//		DG_LINE_SOLID
                            	//		DG_LINE_DOTTED
                            	//		DG_LINE_SOLID_COVER
                            	//		DG_LINE_DOTTED_COVER
                            	//		DG_LINE_SOLID_XOR
                            	//		DG_LINE_DOTTED_XOR
                            	//Function  Description	:GIVE A jumping_off POINT and end point
                            	//  					 DISPLAY A line ON LCD with the style assigned in R_GraphicMode.
                            	//			 
                            	//Input    :(_line_x0,_line_y0)(_line_x1,_line_y1)
                            	//Output   :
                            	//Destory  : R1,R2,R3,R4
                            	//用法:	FG_LineTo(short StartX,short StartY,short EndX,short EndY)
                            	//Example:	FG_LineTo(0,0,20,20)
                            	//			FG_LineTo(R_Var1,R_Var2)
                            	//////////////////////////////////////////////////////////////////////////////
                            	.external	_line_x0								//直线起点X值
                            	.external	_line_x1								//直线终点X值
                            	.external	_line_y0								//直线起点Y值
                            	.external	_line_y1								//直线终点Y值
                            	.external	_line_x									//直线上点X值
                            	.external	_line_y									//直线上点Y值
                            	.external	_lineparameter_a						//直线参数A
                            	.external	_lineparameter_b						//直线参数B
                            	.external	_lineparameter_a_temp					//直线参数A
                            	.external	_lineparameter_b_temp					//直线参数B
                            	
                            	.PUBLIC		_FG_LineTo
                            	_FG_LineTo:
                            				
0000B269 88 DA              			PUSH BP,BP TO [SP]
0000B26A 00 93              			r1=sp
0000B26B 05 95              			r2=bp
0000B26C 1A D5 5C 00        			[bp_temp]=r2
0000B26E 01 25              			r2-=r1
                            	L_LINE_Parameters_two:
0000B26F 46 44              			cmp	r2,0x06
0000B270 03 4E              			jne	L_LINE_Parameters_four
0000B271 40 F0 7C B2        			call	F_LINE_Parameters_two
0000B273 04 EE              			jmp		L_LINE
                            	L_LINE_Parameters_four:		
0000B274 48 44              			cmp	r2,0x08
0000B275 02 4E              			jne		L_LINE
0000B276 40 F0 9C B2        			call	F_LINE_Parameters_four
                            	L_LINE:		
0000B278 40 F0 BC B2        			call	DISPLAY_A_LINE
0000B27A 88 98              			pop	bp from	[sp]
0000B27B 90 9A              			retf
                            	//----------------------------------------
                            	F_LINE_Parameters_two:
0000B27C 11 93 5D 00        			r1=[R_GraphicMode_temp]
0000B27E 09 B3 C3 FF        			r1&=dotted_mode_bit_clear
0000B280 19 D3 5D 00        			[R_GraphicMode_temp]=r1
0000B282 11 93 A0 00        			r1=[R_GraphicMode]
0000B284 7C B2              			r1&=dotted_mode_bit
0000B285 11 A3 5D 00        			r1|=[R_GraphicMode_temp]
0000B287 19 D3 5D 00        			[R_GraphicMode_temp]=r1
0000B289 11 93 A1 00        			r1=[_x0]
0000B28B 19 D3 0E 00        			[_line_x0]=r1
0000B28D 11 93 A2 00        			r1=[_y0]
0000B28F 19 D3 10 00        			[_line_y0]=r1
0000B291 12 95 5C 00        			r2=[bp_temp]
0000B293 41 24              			r2-=0x01
0000B294 C2 92              			r1=[r2]
0000B295 19 D3 11 00        			[_line_y1]=r1
0000B297 41 24              			r2-=0x01
0000B298 C2 92              			r1=[r2]
0000B299 19 D3 0F 00        			[_line_x1]=r1
0000B29B 90 9A              			retf
                            	//----------------------------------------
                            	F_LINE_Parameters_four:
0000B29C 11 93 5D 00        			r1=[R_GraphicMode_temp]
0000B29E 09 B3 C3 FF        			r1&=dotted_mode_bit_clear
0000B2A0 19 D3 5D 00        			[R_GraphicMode_temp]=r1
0000B2A2 11 93 A0 00        			r1=[R_GraphicMode]
0000B2A4 7C B2              			r1&=dotted_mode_bit
0000B2A5 11 A3 5D 00        			r1|=[R_GraphicMode_temp]
0000B2A7 19 D3 5D 00        			[R_GraphicMode_temp]=r1
0000B2A9 12 95 5C 00        			r2=[bp_temp]
0000B2AB 41 24              			r2-=0x01
0000B2AC C2 92              			r1=[r2]
0000B2AD 19 D3 11 00        			[_line_y1]=r1
0000B2AF 41 24              			r2-=0x01
0000B2B0 C2 92              			r1=[r2]
0000B2B1 19 D3 0F 00        			[_line_x1]=r1
0000B2B3 41 24              			r2-=0x01
0000B2B4 C2 92              			r1=[r2]
0000B2B5 19 D3 10 00        			[_line_y0]=r1
0000B2B7 41 24              			r2-=0x01
0000B2B8 C2 92              			r1=[r2]
0000B2B9 19 D3 0E 00        			[_line_x0]=r1
0000B2BB 90 9A              			retf
                            	//----------------------------------------
                            	DISPLAY_A_LINE:		.PROC
0000B2BC 11 93 5D 00        			r1=[R_GraphicMode_temp]
0000B2BE 44 B2              			r1&=0x0004
0000B2BF 06 5E              			jz	DISPLAY_no_dotted_LINE
0000B2C0 11 93 5E 00        			r1=[sign]
0000B2C2 50 A2              			r1|=0x0010
0000B2C3 19 D3 5E 00        			[sign]=r1
0000B2C5 06 EE              			jmp DISPLAY_LINE_mode_end
                            	DISPLAY_no_dotted_LINE:	
0000B2C6 11 93 5E 00        			r1=[sign]
0000B2C8 09 B3 EF FF        			r1&=0xffef
0000B2CA 19 D3 5E 00        			[sign]=r1
                            	DISPLAY_LINE_mode_end:	
                            	line_parameter_adjust:	
0000B2CC 11 93 0E 00        			r1=[_line_x0]
0000B2CE 11 43 0F 00        			cmp	r1,[_line_x1]
0000B2D0 12 0E              			jb	line_begin
0000B2D1 11 5E              			je	line_begin
0000B2D2 11 93 0E 00        			r1=[_line_x0]
0000B2D4 12 95 0F 00        			r2=[_line_x1]
0000B2D6 19 D3 0F 00        			[_line_x1]=r1
0000B2D8 1A D5 0E 00        			[_line_x0]=r2
0000B2DA 11 93 10 00        			r1=[_line_y0]
0000B2DC 12 95 11 00        			r2=[_line_y1]
0000B2DE 19 D3 11 00        			[_line_y1]=r1
0000B2E0 1A D5 10 00        			[_line_y0]=r2
0000B2E2 57 EE              			jmp	line_parameter_adjust	
                            	line_begin:		
0000B2E3 11 93 11 00        			r1=[_line_y1]
0000B2E5 11 43 10 00        			cmp	r1,[_line_y0]
0000B2E7 03 0E              			jb	line_slopeplus
                            			//>=      \    //
0000B2E8 40 F0 EE B2        			call line_slope_negative //line_a
0000B2EA 90 9A              			retf
                            	line_slopeplus:		
                            			//<			/
0000B2EB 40 F0 09 B3        			call	line_slope_plus
0000B2ED 90 9A              			RETF
                            			.ENDP
                            	/////////////////////////////////////////////////////////////////////////////
                            	//	line_slope_negative
                            	//////////////////////////////////////////////////////////////////////////////
                            	line_slope_negative:		.proc
                            			//得到a b [1]      	 
0000B2EE 11 93 0F 00        			r1=[_line_x1]
0000B2F0 12 95 0E 00        			r2=[_line_x0]
0000B2F2 02 23              			r1-=r2
0000B2F3 19 D3 15 00        			[_lineparameter_b]=r1
0000B2F5 19 D3 17 00        			[_lineparameter_b_temp]=r1
0000B2F7 11 93 11 00        			r1=[_line_y1]
0000B2F9 12 95 10 00        			r2=[_line_y0]
0000B2FB 02 23              			r1-=r2
0000B2FC 19 D3 16 00        			[_lineparameter_a_temp]=r1
0000B2FE 19 D3 14 00        			[_lineparameter_a]=r1
                            			//////////////////////////
0000B300 11 43 15 00        			cmp r1,[_lineparameter_b]
0000B302 03 1E              			jae	line_slope_negative_yfrist
                            			//小于
0000B303 40 F0 70 B3        			call	line_slope_neg_xfrist //line_process3
0000B305 90 9A              			retf
                            	line_slope_negative_yfrist:
                            			//大于等于	
0000B306 40 F0 24 B3        			call	line_slope_neg_yfrist //line_process1
                            			
0000B308 90 9A              			RETF
                            			.ENDP
                            	/////////////////////////////////////////////////////////////////////////////
                            	//	line_slope_plus
                            	//////////////////////////////////////////////////////////////////////////////
                            	line_slope_plus:		.proc
                            			//得到a b [2]      	 
0000B309 11 93 0F 00        			r1=[_line_x1]
0000B30B 12 95 0E 00        			r2=[_line_x0]
0000B30D 02 23              			r1-=r2
0000B30E 19 D3 15 00        			[_lineparameter_b]=r1
0000B310 19 D3 17 00        			[_lineparameter_b_temp]=r1
0000B312 11 93 10 00        			r1=[_line_y0]
0000B314 12 95 11 00        			r2=[_line_y1]
0000B316 02 23              			r1-=r2
0000B317 19 D3 16 00        			[_lineparameter_a_temp]=r1
0000B319 19 D3 14 00        			[_lineparameter_a]=r1
                            			//////////////////////////
0000B31B 11 43 15 00        			cmp r1,[_lineparameter_b]
0000B31D 03 1E              			jae	line_slopeplus_yfrist
                            			//小于
0000B31E 40 F0 F2 B3        			call	line_slope_plus_xfrist   // line_process5
0000B320 90 9A              			retf
                            	line_slopeplus_yfrist:
                            			//大于等于	
0000B321 40 F0 B1 B3        			call	line_slope_plus_yfrist   //line_process4
0000B323 90 9A              			RETF
                            			.ENDP
                            					
                            	
                            	/////////////////////////////////////////////////////////////////////////////
                            	//	line_slope_neg_yfrist
                            	//////////////////////////////////////////////////////////////////////////////
                            	//line_process1:		.proc
                            	line_slope_neg_yfrist:
                            			//y先加 a>b 
0000B324 11 93 0E 00        			r1=[_line_x0]
0000B326 19 D3 12 00        			[_line_x]=r1
0000B328 11 93 10 00        			r1=[_line_y0]
0000B32A 19 D3 13 00        			[_line_y]=r1
0000B32C 40 F0 65 B3        			call	line_display_a_point //line_process2
                            	//line_process1_1:
                            	slope_neg_yfrist_begin:
0000B32E 11 93 14 00        			r1=[_lineparameter_a]
0000B330 11 23 15 00        			r1-=[_lineparameter_b]
0000B332 11 43 17 00        			cmp	r1,[_lineparameter_b_temp]
0000B334 1B 9E              			ja	slope_neg_yfrist_addy	//line_process1_2
0000B335 11 93 13 00        			r1=[_line_y]
0000B337 41 02              			r1+=0x01
0000B338 19 D3 13 00        			[_line_y]=r1
0000B33A 11 93 12 00        			r1=[_line_x]
0000B33C 41 02              			r1+=0x01
0000B33D 19 D3 12 00        			[_line_x]=r1
0000B33F 11 93 17 00        			r1=[_lineparameter_b_temp]
0000B341 11 03 15 00        			r1+=[_lineparameter_b]
0000B343 11 23 14 00        			r1-=[_lineparameter_a]
0000B345 19 D3 17 00        			[_lineparameter_b_temp]=r1
0000B347 40 F0 65 B3        			call	line_display_a_point //line_process2
0000B349 11 93 13 00        			r1=[_line_y]
0000B34B 11 43 11 00        			cmp	r1,[_line_y1]
0000B34D 16 1E              			jae	slope_neg_yfrist_end		//line_process1_3	
0000B34E 80 FE 2E B3        			goto	slope_neg_yfrist_begin	//line_process1_1	
                            	//line_process1_2:			
                            	slope_neg_yfrist_addy:
0000B350 11 93 13 00        			r1=[_line_y]
0000B352 41 02              			r1+=0x01
0000B353 19 D3 13 00        			[_line_y]=r1
0000B355 11 93 17 00        			r1=[_lineparameter_b_temp]
0000B357 11 03 15 00        			r1+=[_lineparameter_b]
0000B359 19 D3 17 00        			[_lineparameter_b_temp]=r1
0000B35B 40 F0 65 B3        			call	line_display_a_point //line_process2
0000B35D 11 93 13 00        			r1=[_line_y]	
0000B35F 11 43 11 00        			cmp	r1,[_line_y1]
0000B361 02 1E              			jae	slope_neg_yfrist_end		//line_process1_3	
0000B362 80 FE 2E B3        			goto	slope_neg_yfrist_begin	//line_process1_1	
                            	//line_process1_3:		
                            	slope_neg_yfrist_end:
0000B364 90 9A              			RETF
                            	
                            	/////////////////////////////////////////////////////////////////////////////
                            	//	line_display_a_point //line_process2
                            	//////////////////////////////////////////////////////////////////////////////	
                            	line_display_a_point:
0000B365 11 93 12 00        			r1=[_line_x]
0000B367 19 D3 78 00        			[_x]=r1
0000B369 11 93 13 00        			r1=[_line_y]
0000B36B 19 D3 79 00        			[_y]=r1
0000B36D 40 F0 33 B4        			call  DISPLAY_A_POINT
0000B36F 90 9A              			RETF
                            	/////////////////////////////////////////////////////////////////////////////
                            	// 	line_slope_neg_xfrist
                            	//////////////////////////////////////////////////////////////////////////////
                            	line_slope_neg_xfrist:
                            			//x先加 a>b 
0000B370 11 93 0E 00        			r1=[_line_x0]
0000B372 19 D3 12 00        			[_line_x]=r1
0000B374 11 93 10 00        			r1=[_line_y0]
0000B376 19 D3 13 00        			[_line_y]=r1
0000B378 40 F0 65 B3        			call	line_display_a_point //line_process2
                            	line_slope_neg_xfrist_begin:
0000B37A 11 93 15 00        			r1=[_lineparameter_b]
0000B37C 11 23 14 00        			r1-=[_lineparameter_a]
0000B37E 11 43 16 00        			cmp	r1,[_lineparameter_a_temp]
0000B380 1B 9E              			ja	slope_neg_xfrist_addx  	//line_process3_2
0000B381 11 93 12 00        			r1=[_line_x]
0000B383 41 02              			r1+=0x01
0000B384 19 D3 12 00        			[_line_x]=r1
0000B386 11 93 13 00        			r1=[_line_y]
0000B388 41 02              			r1+=0x01
0000B389 19 D3 13 00        			[_line_y]=r1
0000B38B 11 93 16 00        			r1=[_lineparameter_a_temp]
0000B38D 11 03 14 00        			r1+=[_lineparameter_a]
0000B38F 11 23 15 00        			r1-=[_lineparameter_b]
0000B391 19 D3 16 00        			[_lineparameter_a_temp]=r1
0000B393 40 F0 65 B3        			call	line_display_a_point //line_process2
0000B395 11 93 12 00        			r1=[_line_x]
0000B397 11 43 0F 00        			cmp	r1,[_line_x1]
0000B399 16 1E              			jae	slope_neg_xfrist_end		//line_process3_3	
0000B39A 80 FE 7A B3        			goto	line_slope_neg_xfrist_begin		//line_process3_1			
                            	slope_neg_xfrist_addx:
0000B39C 11 93 12 00        			r1=[_line_x]
0000B39E 41 02              			r1+=0x01
0000B39F 19 D3 12 00        			[_line_x]=r1
0000B3A1 11 93 16 00        			r1=[_lineparameter_a_temp]
0000B3A3 11 03 14 00        			r1+=[_lineparameter_a]
0000B3A5 19 D3 16 00        			[_lineparameter_a_temp]=r1
0000B3A7 40 F0 65 B3        			call	line_display_a_point //line_process2
0000B3A9 11 93 12 00        			r1=[_line_x]	
0000B3AB 11 43 0F 00        			cmp	r1,[_line_x1]
0000B3AD 02 1E              			jae	slope_neg_xfrist_end		//line_process3_3	
0000B3AE 80 FE 7A B3        			goto	line_slope_neg_xfrist_begin		//line_process3_1		
                            	slope_neg_xfrist_end:
0000B3B0 90 9A              			RETF		
                            	/////////////////////////////////////////////////////////////////////////////
                            	//	line_slope_plus_yfrist
                            	//////////////////////////////////////////////////////////////////////////////
                            	line_slope_plus_yfrist:
                            			//y先加 a>b 
0000B3B1 11 93 0E 00        			r1=[_line_x0]
0000B3B3 19 D3 12 00        			[_line_x]=r1
0000B3B5 11 93 10 00        			r1=[_line_y0]
0000B3B7 19 D3 13 00        			[_line_y]=r1
0000B3B9 40 F0 65 B3        			call	line_display_a_point 
                            	slope_plus_yfrist_begin:
0000B3BB 11 93 14 00        			r1=[_lineparameter_a]
0000B3BD 11 23 15 00        			r1-=[_lineparameter_b]
0000B3BF 11 43 17 00        			cmp	r1,[_lineparameter_b_temp]
0000B3C1 1B 9E              			ja	slope_plus_yfrist_suby	
0000B3C2 11 93 13 00        			r1=[_line_y]
0000B3C4 41 22              			r1-=0x01
0000B3C5 19 D3 13 00        			[_line_y]=r1
0000B3C7 11 93 12 00        			r1=[_line_x]
0000B3C9 41 02              			r1+=0x01
0000B3CA 19 D3 12 00        			[_line_x]=r1
0000B3CC 11 93 17 00        			r1=[_lineparameter_b_temp]
0000B3CE 11 03 15 00        			r1+=[_lineparameter_b]
0000B3D0 11 23 14 00        			r1-=[_lineparameter_a]
0000B3D2 19 D3 17 00        			[_lineparameter_b_temp]=r1
0000B3D4 40 F0 65 B3        			call	line_display_a_point 
0000B3D6 11 93 13 00        			r1=[_line_y]
0000B3D8 11 43 11 00        			cmp	r1,[_line_y1]
0000B3DA 16 8E              			jbe	slope_plus_yfrist_end		
0000B3DB 80 FE BB B3        			goto	slope_plus_yfrist_begin		
                            	slope_plus_yfrist_suby:			
0000B3DD 11 93 13 00        			r1=[_line_y]
0000B3DF 41 22              			r1-=0x01
0000B3E0 19 D3 13 00        			[_line_y]=r1
0000B3E2 11 93 17 00        			r1=[_lineparameter_b_temp]
0000B3E4 11 03 15 00        			r1+=[_lineparameter_b]
0000B3E6 19 D3 17 00        			[_lineparameter_b_temp]=r1
0000B3E8 40 F0 65 B3        			call	line_display_a_point 
0000B3EA 11 93 13 00        			r1=[_line_y]	
0000B3EC 11 43 11 00        			cmp	r1,[_line_y1]
0000B3EE 02 8E              			jbe	slope_plus_yfrist_end		
0000B3EF 80 FE BB B3        			goto	slope_plus_yfrist_begin	
                            	slope_plus_yfrist_end:	
0000B3F1 90 9A              			RETF
                            	/////////////////////////////////////////////////////////////////////////////
                            	//  line_slope_plus_xfrist
                            	//////////////////////////////////////////////////////////////////////////////
                            	line_slope_plus_xfrist:
                            			//x先加 a>b 
0000B3F2 11 93 0E 00        			r1=[_line_x0]
0000B3F4 19 D3 12 00        			[_line_x]=r1
0000B3F6 11 93 10 00        			r1=[_line_y0]
0000B3F8 19 D3 13 00        			[_line_y]=r1
0000B3FA 40 F0 65 B3        			call	line_display_a_point //line_process2
                            	slope_plus_xfrist_begin:
0000B3FC 11 93 15 00        			r1=[_lineparameter_b]
0000B3FE 11 23 14 00        			r1-=[_lineparameter_a]
0000B400 11 43 16 00        			cmp	r1,[_lineparameter_a_temp]
0000B402 1B 9E              			ja	slope_plus_xfrist_addx		//line_process5_2
0000B403 11 93 12 00        			r1=[_line_x]
0000B405 41 02              			r1+=0x01
0000B406 19 D3 12 00        			[_line_x]=r1
0000B408 11 93 13 00        			r1=[_line_y]
0000B40A 41 22              			r1-=0x01
0000B40B 19 D3 13 00        			[_line_y]=r1
0000B40D 11 93 16 00        			r1=[_lineparameter_a_temp]
0000B40F 11 03 14 00        			r1+=[_lineparameter_a]
0000B411 11 23 15 00        			r1-=[_lineparameter_b]
0000B413 19 D3 16 00        			[_lineparameter_a_temp]=r1
0000B415 40 F0 65 B3        			call	line_display_a_point //line_process2
0000B417 11 93 12 00        			r1=[_line_x]
0000B419 11 43 0F 00        			cmp	r1,[_line_x1]
0000B41B 16 1E              			jae	slope_plus_xfrist_end		//line_process5_3	
0000B41C 80 FE FC B3        			goto	slope_plus_xfrist_begin		//line_process5_1		
                            	slope_plus_xfrist_addx:	
0000B41E 11 93 12 00        			r1=[_line_x]
0000B420 41 02              			r1+=0x01
0000B421 19 D3 12 00        			[_line_x]=r1
0000B423 11 93 16 00        			r1=[_lineparameter_a_temp]
0000B425 11 03 14 00        			r1+=[_lineparameter_a]
0000B427 19 D3 16 00        			[_lineparameter_a_temp]=r1
0000B429 40 F0 65 B3        			call	line_display_a_point //line_process2
0000B42B 11 93 12 00        			r1=[_line_x]	
0000B42D 11 43 0F 00        			cmp	r1,[_line_x1]
0000B42F 02 1E              			jae	slope_plus_xfrist_end		//line_process5_3	
0000B430 80 FE FC B3        			goto	slope_plus_xfrist_begin		//line_process5_1			
                            	slope_plus_xfrist_end:
0000B432 90 9A              			RETF
                            	
                            		
                            	
                            	//////////////////////////////////////////////////////////////////////////////
                            	//	GIVE A POINT TO （X，Y）DISPLAY A POINT ON LCD 
                            	//			Give	x->[_x],y->[_y];
                            	//			call	_DISPLAY_A_POINT
                            	//////////////////////////////////////////////////////////////////////////////
                            	.external	_x										//点X坐标
                            	.external	_y										//点Y坐标
                            	.external	_page_place_bit							//点在PAGE place上位置
                            	.external	_page									//点所在PAGE
                            	.external	_page_place								//点在PAGE上 place	
                            	.external	_public_area_sign						//点坐标显示范围标志
                            	.external	_point_value
                            	.external	TAB_pixel
                            	
                            	.PUBLIC		DISPLAY_A_POINT
                            	DISPLAY_A_POINT:		.PROC
0000B433 40 F0 1A B5        		CALL	get_a_point_address
0000B435 09 93 FF 00        		r1=0xff
0000B437 11 43 7C 00        		cmp	r1,[_public_area_sign]
0000B439 02 5E              		je		DISPLAY_A_POINT_1
0000B43A 40 F0 3D B4        		CALL	display_a_point
                            	DISPLAY_A_POINT_1:
0000B43C 90 9A              		RETF
                            		.ENDP
                            		
                            	//------------------------------------------------------------------------------	
                            	display_a_point:	.proc
0000B43D 11 93 76 00        			R1 =[_page]          
0000B43F 40 F0 15 C4        	        CALL    F_Set_LCD_Page_No
0000B441 12 95 77 00        			R2 =[_page_place]
0000B443 40 F0 3E C4        	        CALL    F_Set_LCD_Column_Addr
                            	display_a_point_cover:	
0000B445 14 99 5D 00        			r4=[R_GraphicMode_temp]
0000B447 78 B8              			r4&=line_mode_bit
0000B448 40 48              	    	cmp r4,draw_mode_COVER
0000B449 02 4E              			jne	display_a_point_erase
0000B44A 40 F0 7C B4        			call display_point_cover
                            	display_a_point_erase:
0000B44C 78 B8              			r4&=line_mode_bit
0000B44D 48 48              			cmp r4,draw_mode_ERASE
0000B44E 02 4E              			jne	display_a_point_solid
0000B44F 40 F0 8C B4        			call display_point_erase
                            	display_a_point_solid:
0000B451 78 B8              			r4&=line_mode_bit
0000B452 50 48              			cmp r4,draw_mode_HOLLOW
0000B453 02 4E              			jne	display_a_point_dotted
0000B454 40 F0 9E B4        			call display_point_solid
                            	display_a_point_dotted:
0000B456 78 B8              			r4&=line_mode_bit
0000B457 58 48              			cmp r4,draw_mode_DOTTED
0000B458 02 4E              			jne	display_a_point_solid_cover
0000B459 40 F0 AE B4        			call display_point_dotted
                            	display_a_point_solid_cover:
0000B45B 78 B8              			r4&=line_mode_bit
0000B45C 60 48              			cmp r4,draw_mode_HOLLOW_ERASE
0000B45D 02 4E              			jne	display_a_point_dotted_cover
0000B45E 40 F0 CF B4        			call display_point_solid_cover
                            	display_a_point_dotted_cover:
0000B460 78 B8              			r4&=line_mode_bit
0000B461 68 48              			cmp r4,draw_mode_DOTTED_COVER
0000B462 02 4E              			jne	display_a_point_solid_xor
0000B463 40 F0 D2 B4        			call display_point_dotted_cover
                            	display_a_point_solid_xor:
0000B465 78 B8              			r4&=line_mode_bit
0000B466 70 48              			cmp r4,draw_mode_SOLID_XOR
0000B467 02 4E              			jne	display_a_point_dotted_xor
0000B468 40 F0 E7 B4        			call display_point_solid_xor
                            	display_a_point_dotted_xor:
0000B46A 78 B8              			r4&=line_mode_bit
0000B46B 78 48              			cmp r4,draw_mode_DOTTED_XOR
0000B46C 02 4E              			jne	display_a_point_mod_end	
0000B46D 40 F0 F7 B4        			call display_point_dotted_xor	
                            	display_a_point_mod_end:      
0000B46F 11 93 76 00        			R1 =[_page];                    
0000B471 40 F0 15 C4        	        CALL    F_Set_LCD_Page_No;
0000B473 12 95 77 00        	        R2 =[_page_place]
0000B475 40 F0 3E C4        	        CALL    F_Set_LCD_Column_Addr;
0000B477 13 97 7D 00        	        r3=[_point_value]
0000B479 40 F0 EE C4        	        call	F_Display_point
0000B47B 90 9A              	        retf
                            	        .endp	
                            	//----------------------------------------------------------------------------  
                            	display_point_cover:
0000B47C 12 95 75 00        			r2=[_page_place_bit]
0000B47E 09 93 5B 80        	        r1=TAB_pixel;
0000B480 02 03              	        r1=r1+r2;
0000B481 C1 92              	        r1=[r1]
0000B482 88 D2              			push	r1 to [sp]
0000B483 40 F0 C0 C4        			call	_Read_Lcd_data
0000B485 7B 97              			r3=r3 lsr	0x04
0000B486 7B 97              			r3=r3 lsr	0x04
0000B487 88 90              			pop		r1 from [sp]
0000B488 03 A3              			r1|=r3
0000B489 19 D3 7D 00        			[_point_value]=r1
0000B48B 90 9A              	        retf
                            	//----------------------------------------------------------------------------  
                            	display_point_erase:
0000B48C 12 95 75 00        			r2=[_page_place_bit]
0000B48E 09 93 5B 80        	        r1=TAB_pixel;
0000B490 02 03              	        r1=r1+r2;
0000B491 C1 92              	        r1=[r1]
0000B492 88 D2              			push	r1 to [sp]
0000B493 40 F0 C0 C4        			call	_Read_Lcd_data
0000B495 7B 97              			r3=r3 lsr	0x04
0000B496 7B 97              			r3=r3 lsr	0x04
0000B497 88 90              			pop		r1 from [sp]
0000B498 09 83 FF 00        			r1^=0xff
0000B49A 01 B7              			r3&=r1
0000B49B 1B D7 7D 00        			[_point_value]=r3
0000B49D 90 9A              	        retf
                            	//----------------------------------------------------------------------------  
                            	display_point_solid:
0000B49E 12 95 75 00        			r2=[_page_place_bit]
0000B4A0 09 93 5B 80        	        r1=TAB_pixel;
0000B4A2 02 03              	        r1=r1+r2;
0000B4A3 C1 92              	        r1=[r1]
0000B4A4 88 D2              			push	r1 to [sp]
0000B4A5 40 F0 C0 C4        			call	_Read_Lcd_data
0000B4A7 7B 97              			r3=r3 lsr	0x04
0000B4A8 7B 97              			r3=r3 lsr	0x04
0000B4A9 88 90              			pop		r1 from [sp]
0000B4AA 03 A3              			r1|=r3
0000B4AB 19 D3 7D 00        			[_point_value]=r1
0000B4AD 90 9A              	        retf
                            	//----------------------------------------------------------------------------  
                            	display_point_dotted:
0000B4AE 11 93 5E 00        			r1=[sign]
0000B4B0 50 B2              			r1&=0x0010
0000B4B1 09 5E              			jz	display_a_empty_point
0000B4B2 40 F0 9E B4        			call display_point_solid		
0000B4B4 11 93 5E 00        			r1=[sign]
0000B4B6 09 B3 EF FF        			r1&=0xffef
0000B4B8 19 D3 5E 00        			[sign]=r1
0000B4BA 90 9A              			retf
                            	display_a_empty_point:	
                            	//		call display_point_erase
0000B4BB 12 95 75 00        			r2=[_page_place_bit]
0000B4BD 09 93 5B 80        	        r1=TAB_pixel;
0000B4BF 02 03              	        r1=r1+r2;
0000B4C0 C1 92              	        r1=[r1]
0000B4C1 88 D2              			push	r1 to [sp]
0000B4C2 40 F0 C0 C4        			call	_Read_Lcd_data
0000B4C4 7B 97              			r3=r3 lsr	0x04
0000B4C5 7B 97              			r3=r3 lsr	0x04
0000B4C6 88 90              			pop		r1 from [sp]
                            	//		r1^=0xff
                            	//		r3&=r1
0000B4C7 1B D7 7D 00        			[_point_value]=r3
0000B4C9 11 93 5E 00        			r1=[sign]
0000B4CB 50 A2              			r1|=0x0010
0000B4CC 19 D3 5E 00        			[sign]=r1
0000B4CE 90 9A              	        retf
                            	//----------------------------------------------------------------------------  
                            	display_point_solid_cover:
0000B4CF 40 F0 8C B4        			call	display_point_erase
0000B4D1 90 9A              	        retf
                            	//----------------------------------------------------------------------------  
                            	display_point_dotted_cover:
0000B4D2 11 93 5E 00        			r1=[sign]
0000B4D4 50 B2              			r1&=0x0010
0000B4D5 09 5E              			jz	display_dotted_cover_empty_point
0000B4D6 40 F0 9E B4        			call display_point_solid
0000B4D8 11 93 5E 00        			r1=[sign]
0000B4DA 09 B3 EF FF        			r1&=0xffef
0000B4DC 19 D3 5E 00        			[sign]=r1
0000B4DE 90 9A              			retf
                            	display_dotted_cover_empty_point:	
0000B4DF 40 F0 8C B4        			call display_point_erase
0000B4E1 11 93 5E 00        			r1=[sign]
0000B4E3 50 A2              			r1|=0x0010
0000B4E4 19 D3 5E 00        			[sign]=r1
0000B4E6 90 9A              	        retf
                            	//----------------------------------------------------------------------------  
                            	display_point_solid_xor:
0000B4E7 12 95 75 00        			r2=[_page_place_bit]
0000B4E9 09 93 5B 80        	        r1=TAB_pixel;
0000B4EB 02 03              	        r1=r1+r2;
0000B4EC C1 92              	        r1=[r1]
0000B4ED 88 D2              			push	r1 to [sp]
0000B4EE 40 F0 C0 C4        			call	_Read_Lcd_data
0000B4F0 7B 97              			r3=r3 lsr	0x04
0000B4F1 7B 97              			r3=r3 lsr	0x04
0000B4F2 88 90              			pop		r1 from [sp]
0000B4F3 03 83              			r1^=r3
0000B4F4 19 D3 7D 00        			[_point_value]=r1
0000B4F6 90 9A              	        retf
                            	//----------------------------------------------------------------------------        
                            	display_point_dotted_xor:
0000B4F7 11 93 5E 00        			r1=[sign]
0000B4F9 50 B2              			r1&=0x0010
0000B4FA 09 5E              			jz	display_xor_empty_point
0000B4FB 40 F0 E7 B4        			call display_point_solid_xor
0000B4FD 11 93 5E 00        			r1=[sign]
0000B4FF 09 B3 EF FF        			r1&=0xffef
0000B501 19 D3 5E 00        			[sign]=r1
0000B503 90 9A              			retf
                            	display_xor_empty_point:	
0000B504 12 95 75 00        			r2=[_page_place_bit]
0000B506 09 93 5B 80        	        r1=TAB_pixel;
0000B508 02 03              	        r1=r1+r2;
0000B509 C1 92              	        r1=[r1]
0000B50A 88 D2              			push	r1 to [sp]
0000B50B 40 F0 C0 C4        			call	_Read_Lcd_data
0000B50D 7B 97              			r3=r3 lsr	0x04
0000B50E 7B 97              			r3=r3 lsr	0x04
0000B50F 88 90              			pop		r1 from [sp]
0000B510 01 87              			r3^=r1
0000B511 01 87              			r3^=r1
0000B512 1B D7 7D 00        			[_point_value]=r3
0000B514 11 93 5E 00        			r1=[sign]
0000B516 50 A2              			r1|=0x0010
0000B517 19 D3 5E 00        			[sign]=r1
0000B519 90 9A              	        retf      
                            	//---------------------------------------------------------------------------------		   
                            	////Filename : get_a_point_address
                            	//Function  Description	:work out place of appoint point
                            	//Input    : [_x][_y]
                            	//Output   : [_page][_page_place][_page_place_bit]
                            	//Destory  : R1,R2,R3,R4
                            	//---------------------------------------------------------------------------------	
                            	.public get_a_point_address		
                            	get_a_point_address:     .proc 	
                            	//get a point	page,page_place_bit,page_place
0000B51A 40 92              			r1=0x00
0000B51B 19 D3 76 00        			[_page]=r1
0000B51D 19 D3 77 00        			[_page_place]=r1
0000B51F 19 D3 75 00        			[_page_place_bit]=r1		
0000B521 11 93 78 00        			r1=[_x]
0000B523 19 D3 77 00        			[_page_place]=r1	
0000B525 11 93 79 00        			r1=[_y]
0000B527 19 D3 79 00        			[_y]=r1
0000B529 40 42              			cmp	r1,_public_area_y_l
0000B52A 05 1E              			jae	lab_get_address_1
0000B52B 09 93 FF 00        			r1=0xff
0000B52D 19 D3 7C 00        			[_public_area_sign]=r1
0000B52F 90 9A              			retf
                            	lab_get_address_1:
0000B530 09 43 40 00        			cmp	r1,_public_area_y_h
0000B532 05 0E              			jb	lab_get_address_2
0000B533 09 93 FF 00        			r1=0xff
0000B535 19 D3 7C 00        			[_public_area_sign]=r1
0000B537 90 9A              			retf
                            	lab_get_address_2:
0000B538 40 42              			cmp	r1,_public_area_x_l
0000B539 05 1E              			jae	lab_get_address_3
0000B53A 09 93 FF 00        			r1=0xff
0000B53C 19 D3 7C 00        			[_public_area_sign]=r1
0000B53E 90 9A              			retf
                            	lab_get_address_3:
0000B53F 09 43 70 00        			cmp	r1,_public_area_x_h
0000B541 05 0E              			jb	lab_get_page
0000B542 09 93 FF 00        			r1=0xff
0000B544 19 D3 7C 00        			[_public_area_sign]=r1
0000B546 90 9A              			retf	
                            	lab_get_page:
0000B547 40 92              			r1=0x00
0000B548 19 D3 7C 00        			[_public_area_sign]=r1
0000B54A 11 93 79 00        			r1=[_y]
0000B54C 41 02              			r1+=0x01	
                            	lab_get_page1:			
0000B54D 48 42              			cmp	r1,	0x08
0000B54E 09 8E              			jbe lab_get_page_place_bit
0000B54F 48 22              			r1-=0x08
0000B550 01 95              			r2=r1
0000B551 11 93 76 00        			r1=[_page]
0000B553 41 02              			r1+=0x01
0000B554 19 D3 76 00        			[_page]=r1
0000B556 02 93              			r1=r2
0000B557 4B EE              			jmp lab_get_page1
                            	lab_get_page_place_bit:
0000B558 19 D3 75 00        			[_page_place_bit]=r1
                            	lab_get_address_end:	
0000B55A 90 9A              		retf
                            		.endp
                            	//////////////////////////////////////////////////////////////////////////////
                            	//Filename : _FG_Rectangle
                            	//Function  Description	:display a rectangle on lcd 
                            	//Input    : [_rectangle_jumping_off_y][_rectangle_jumping_off_x]
                            	//			 [_rectangle_end_point_x][_rectangle_end_point_y]
                            	//the jump off point must is left downside point of rectangle.the end point must is
                            	//right upside of rectangle 
                            	//Mode:
                            	//	DG_RECT_COVER			(default)
                            	//	DG_RECT_ERASE			
                            	//	DG_RECT_HOLLOW	
                            	//	DG_RECT_DOTTED			
                            	//	DG_RECT_HOLLOW_ERASE	
                            	//	DG_RECT_DOTTED_COVER
                            	//	DG_RECT_SOLID_XOR	
                            	//	DG_RECT_DOTTED_XOR	
                            	//usage: FG_Rectangle(short _rectangle_jumping_off_x,short _rectangle_jumping_off_y
                            	//					  ,short _rectangle_end_point_x,short _rectangle_end_point_y)
                            	//Destory  : R1,R2,R3,R4
                            	//////////////////////////////////////////////////////////////////////////////
                            	.public		_FG_Rectangle
                            	_FG_Rectangle:
0000B55B 88 DA              			PUSH BP,BP TO [SP]
0000B55C 00 93              			r1=sp
0000B55D 05 95              			r2=bp
0000B55E 1A D5 5C 00        			[bp_temp]=r2
0000B560 01 25              			r2-=r1
                            	L_Rectangle_Parameters_two:
0000B561 46 44              			cmp	r2,0x06
0000B562 03 4E              			jne	L_Rectangle_Parameters_four
0000B563 40 F0 6E B5        			call	F_Rectangle_Parameters_two
0000B565 04 EE              			jmp		L_Rectangle
                            	L_Rectangle_Parameters_four:		
0000B566 48 44              			cmp	r2,0x08
0000B567 02 4E              			jne		L_Rectangle
0000B568 40 F0 92 B5        			call	F_Rectangle_Parameters_four
                            	L_Rectangle:		
0000B56A 40 F0 24 B6        			call	rectagle		//_rectagle1
0000B56C 88 98              			pop	bp from	[sp]
0000B56D 90 9A              			retf	 
                            	//----------------------------------------------------------------------------
                            	F_Rectangle_Parameters_two:
0000B56E 11 93 5D 00        			r1=[R_GraphicMode_temp]
0000B570 09 B3 C3 FF        			r1&=dotted_mode_bit_clear
0000B572 19 D3 5D 00        			[R_GraphicMode_temp]=r1
0000B574 11 93 A0 00        			r1=[R_GraphicMode]
0000B576 7C B2              			r1&=dotted_mode_bit
0000B577 11 A3 5D 00        			r1|=[R_GraphicMode_temp]
0000B579 19 D3 5D 00        			[R_GraphicMode_temp]=r1
0000B57B 11 93 A1 00        			r1=[_x0]
0000B57D 19 D3 18 00        			[_rectangle_jumping_off_x]=r1
0000B57F 11 93 A2 00        			r1=[_y0]
0000B581 19 D3 19 00        			[_rectangle_jumping_off_y]=r1
0000B583 12 95 5C 00        			r2=[bp_temp]
0000B585 41 24              			r2-=0x01
0000B586 C2 92              			r1=[r2]
0000B587 11 23 19 00        			r1-=[_rectangle_jumping_off_y]
0000B589 19 D3 1A 00        			[_rectangle_high]=r1
0000B58B 41 24              			r2-=0x01
0000B58C C2 92              			r1=[r2]
0000B58D 11 23 18 00        			r1-=[_rectangle_jumping_off_x]
0000B58F 19 D3 1B 00        			[_rectangle_wide]=r1
0000B591 90 9A              			retf
                            	//----------------------------------------
                            	F_Rectangle_Parameters_four:
0000B592 11 93 5D 00        			r1=[R_GraphicMode_temp]
0000B594 09 B3 C3 FF        			r1&=dotted_mode_bit_clear
0000B596 19 D3 5D 00        			[R_GraphicMode_temp]=r1
0000B598 11 93 A0 00        			r1=[R_GraphicMode]
0000B59A 7C B2              			r1&=dotted_mode_bit
0000B59B 11 A3 5D 00        			r1|=[R_GraphicMode_temp]
0000B59D 19 D3 5D 00        			[R_GraphicMode_temp]=r1
0000B59F 12 95 5C 00        			r2=[bp_temp]
0000B5A1 41 24              			r2-=0x01
0000B5A2 C2 92              			r1=[r2]
0000B5A3 19 D3 1A 00        			[_rectangle_high]=r1
0000B5A5 41 24              			r2-=0x01
0000B5A6 C2 92              			r1=[r2]
0000B5A7 19 D3 1B 00        			[_rectangle_wide]=r1
0000B5A9 41 24              			r2-=0x01
0000B5AA C2 92              			r1=[r2]
0000B5AB 19 D3 19 00        			[_rectangle_jumping_off_y]=r1
0000B5AD 41 24              			r2-=0x01
0000B5AE C2 92              			r1=[r2]
0000B5AF 19 D3 18 00        			[_rectangle_jumping_off_x]=r1
0000B5B1 11 93 1B 00        			r1=[_rectangle_wide]
0000B5B3 11 23 18 00        			r1-=[_rectangle_jumping_off_x]
0000B5B5 19 D3 1B 00        			[_rectangle_wide]=r1
0000B5B7 11 93 1A 00        			r1=[_rectangle_high]
0000B5B9 11 23 19 00        			r1-=[_rectangle_jumping_off_y]
0000B5BB 19 D3 1A 00        			[_rectangle_high]=r1
0000B5BD 90 9A              			retf
                            	//----------------------------------------------------------------------------
                            		
                            	//////////////////////////////////////////////////////////////////////////////
                            	//	display a rectange on lcd
                            	//input		_rectangle_jumping_off_x,_rectangle_jumping_off_y,_rectagle_shape
                            	//			_rectagle_mode,_rectangle_wide,_rectangle_high
                            	//////////////////////////////////////////////////////////////////////////////
                            	.external	_rectagle_shape
                            	.external	_rectagle_mode
                            	.external	_rectagle_high_temp
                            	.external	_rectagle_wide_temp
                            	.external	_rectangle_temp_x					//矩形x
                            	//.public		_rectagle		
                            	//_rectagle:		.proc
                            	rectangle_hollow:
0000B5BE 11 93 18 00        			r1=[_rectangle_jumping_off_x]
0000B5C0 19 D3 0E 00        			[_line_x0]=r1
0000B5C2 11 03 1B 00        			r1+=[_rectangle_wide]
0000B5C4 41 22              			r1-=0x01
0000B5C5 19 D3 0F 00        			[_line_x1]=r1
0000B5C7 11 93 19 00        			r1=[_rectangle_jumping_off_y]
0000B5C9 19 D3 10 00        			[_line_y0]=r1
0000B5CB 19 D3 11 00        			[_line_y1]=r1
0000B5CD 40 F0 BC B2        			call	DISPLAY_A_LINE
0000B5CF 11 93 0E 00        			r1=[_line_x0]
0000B5D1 19 D3 0F 00        			[_line_x1]=r1
0000B5D3 11 93 10 00        			r1=[_line_y0]
0000B5D5 11 03 1A 00        			r1+=[_rectangle_high]
0000B5D7 41 22              			r1-=0x01		
0000B5D8 19 D3 11 00        			[_line_y1]=r1
0000B5DA 40 F0 BC B2        			call	DISPLAY_A_LINE	
0000B5DC 11 93 11 00        			r1=[_line_y1]
0000B5DE 19 D3 10 00        			[_line_y0]=r1
0000B5E0 11 93 0F 00        			r1=[_line_x1]
0000B5E2 11 03 1B 00        			r1+=[_rectangle_wide]
0000B5E4 41 22              			r1-=0x01
0000B5E5 19 D3 0F 00        			[_line_x1]=r1
0000B5E7 40 F0 BC B2        			call	DISPLAY_A_LINE	
0000B5E9 11 93 0F 00        			r1=[_line_x1]
0000B5EB 19 D3 0E 00        			[_line_x0]=r1
0000B5ED 11 93 11 00        			r1=[_line_y1]
0000B5EF 11 23 1A 00        			r1-=[_rectangle_high]
0000B5F1 41 02              			r1+=0x01
0000B5F2 19 D3 11 00        			[_line_y1]=r1	
0000B5F4 40 F0 BC B2        			call	DISPLAY_A_LINE
0000B5F6 90 9A              			retf
                            	
                            	//----------------------------------------------------------
                            	//r2-->high
                            	rectangle_dotted:
0000B5F7 11 93 5D 00        			r1=[R_GraphicMode_temp]
0000B5F9 44 A2              			r1|=0x0004
0000B5FA 19 D3 5D 00        			[R_GraphicMode_temp]=r1
0000B5FC 40 94              			r2=0x00
0000B5FD 11 93 18 00        			r1=[_rectangle_jumping_off_x]
0000B5FF 19 D3 0E 00        			[_line_x0]=r1
0000B601 11 93 19 00        			r1=[_rectangle_jumping_off_y]
0000B603 19 D3 10 00        			[_line_y0]=r1
0000B605 19 D3 11 00        			[_line_y1]=r1
0000B607 11 93 18 00        			r1=[_rectangle_jumping_off_x]
0000B609 11 03 1B 00        			r1+=[_rectangle_wide]
0000B60B 41 22              			r1-=0x01
0000B60C 19 D3 0F 00        			[_line_x1]=r1
                            	rectangle_dotted_loop:	
0000B60E 88 D4              			push r2 to [sp]
0000B60F 40 F0 BC B2        			call	DISPLAY_A_LINE
0000B611 11 93 5D 00        			r1=[R_GraphicMode_temp]
0000B613 44 82              			r1^=0x0004
0000B614 19 D3 5D 00        			[R_GraphicMode_temp]=r1
0000B616 88 92              			pop r2 from [sp]
0000B617 41 04              			r2+=0x01
0000B618 12 45 1A 00        			cmp	r2,[_rectangle_high]
0000B61A 08 5E              			je 	rectangle_dotted_end
0000B61B 11 93 10 00        			r1=[_line_y0]
0000B61D 41 02              			r1+=0x01
0000B61E 19 D3 10 00        			[_line_y0]=r1
0000B620 19 D3 11 00        			[_line_y1]=r1
0000B622 55 EE              			jmp rectangle_dotted_loop
                            	rectangle_dotted_end:		
0000B623 90 9A              			retf		
                            						
                            	//////////////////////////////////////////////////////////////////////////////
                            	//	display a rectange on lcd
                            	// put in	[_rectangle_jumping_off_x][_rectangle_jumping_off_y]
                            	//			[_rectangle_high][_rectangle_wide]
                            	//////////////////////////////////////////////////////////////////////////////
                            	.external	_rectangle_jumping_off_x					//矩形起点x
                            	.external	_rectangle_jumping_off_y					//矩形起点y
                            	.external	_rectangle_high								//矩形高
                            	.external	_rectangle_wide								//矩形宽
                            	.external	_rectangle_jumping_off_page					//矩形起点page
                            	.external	_rectangle_jumping_off_place				//矩形起点place
                            	.external	_rectangle_jumping_off_bit					//矩形起点bit
                            	.external	_rectangle_end_place						//矩形终点page
                            	.external	_rectangle_end_page							//矩形终点place
                            	.external	_rectangle_end_bit							//矩形终点bit
                            	
                            	//.public		_rectagle1		
                            	//_rectagle1:		.proc
                            	rectagle:	
0000B624 14 99 5D 00        			r4=[R_GraphicMode_temp]
                            	rectangle_mod_dotted:
0000B626 78 B8              			r4&=line_mode_bit
0000B627 58 48              			cmp r4,rect_mode_DOTTED
0000B628 03 4E              			jne	rectangle_mod_dotted_cove
0000B629 40 F0 F7 B5        			call	rectangle_dotted
0000B62B 90 9A              			retf
                            	rectangle_mod_dotted_cove:	
0000B62C 78 B8              			r4&=line_mode_bit
0000B62D 68 48              			cmp r4,rect_mode_DOTTED_COVER
0000B62E 03 4E              			jne	rectangle_mod_dotted_xor
0000B62F 40 F0 F7 B5        			call	rectangle_dotted
0000B631 90 9A              			retf
                            	rectangle_mod_dotted_xor:
0000B632 78 B8              			r4&=line_mode_bit
0000B633 78 48              			cmp r4,rect_mode_DOTTED_XOR
0000B634 03 4E              			jne	rectangle_process3_loop_solid
0000B635 40 F0 F7 B5        			call	rectangle_dotted
0000B637 90 9A              			retf
                            	rectangle_process3_loop_solid:
0000B638 78 B8              			r4&=line_mode_bit
0000B639 50 48              			cmp r4,rect_mode_HOLLOW
0000B63A 03 4E              			jne	rectangle_process3_loop_solid_cover
0000B63B 40 F0 BE B5        			call	rectangle_hollow			//_rectagle
0000B63D 90 9A              			retf
                            	rectangle_process3_loop_solid_cover:
0000B63E 78 B8              			r4&=line_mode_bit
0000B63F 60 48              			cmp r4,rect_mode_HOLLOW_ERASE
0000B640 0E 4E              			jne	rectangle_mod_part_end
0000B641 11 93 5D 00        			r1=[R_GraphicMode_temp]
0000B643 09 B3 C7 FF        			r1&=line_mode_bit_clear
0000B645 48 A2              			r1|=rect_mode_ERASE
0000B646 19 D3 5D 00        			[R_GraphicMode_temp]=r1
0000B648 88 D2              			push r1 to [sp]
0000B649 40 F0 BE B5        			call	rectangle_hollow			//_rectagle
0000B64B 88 90              			pop r1 from [sp]
0000B64C 19 D3 5D 00        			[R_GraphicMode_temp]=r1
0000B64E 90 9A              			retf
                            	rectangle_mod_part_end:		
0000B64F 11 93 18 00        			r1=[_rectangle_jumping_off_x]
0000B651 19 D3 78 00        			[_x]=r1
0000B653 11 93 19 00        			r1=[_rectangle_jumping_off_y]
0000B655 19 D3 79 00        			[_y]=r1
0000B657 40 F0 1A B5        			call	get_a_point_address
0000B659 11 93 76 00        			r1=[_page]
0000B65B 19 D3 1E 00        			[_rectangle_jumping_off_page]=r1
0000B65D 11 93 77 00        			r1=[_page_place]
0000B65F 19 D3 21 00        			[_rectangle_end_place]=r1
0000B661 11 93 75 00        			r1=[_page_place_bit]
0000B663 19 D3 20 00        			[_rectangle_jumping_off_bit]=r1	
                            			
                            			
0000B665 11 93 1A 00        			r1=[_rectangle_high]
0000B667 41 22              			r1-=0x01
0000B668 11 03 19 00        			r1+=[_rectangle_jumping_off_y]
                            		//	r1-=0x01
0000B66A 19 D3 79 00        			[_y]=r1
0000B66C 11 93 18 00        			r1=[_rectangle_jumping_off_x]
0000B66E 19 D3 78 00        			[_x]=r1
0000B670 40 F0 1A B5        			call	get_a_point_address
0000B672 11 93 76 00        			r1=[_page]
0000B674 19 D3 22 00        			[_rectangle_end_page]=r1
0000B676 11 93 75 00        			r1=[_page_place_bit]
0000B678 19 D3 23 00        			[_rectangle_end_bit]=r1	
                            			
0000B67A 11 93 22 00        			r1=[_rectangle_end_page]
0000B67C 11 43 1E 00        			cmp	r1,[_rectangle_jumping_off_page]
0000B67E 04 1E              			jae		rectangle_entity				//rectangle_1
0000B67F 11 93 1A 00        			r1=[_rectangle_high]
0000B681 01 4E              			jne	rectangle_entity
                            	//		r1=[_public_area_sign]
                            	//		cmp	r1,0xff
                            	//		jne	rectangle_5
                            	//		call 	rectangle_process1
                            			//小于非法
                            	//rectangle_5:	
0000B682 90 9A              			retf
                            	//rectangle_1:
                            	rectangle_entity:
0000B683 11 93 22 00        			r1=[_rectangle_end_page]
0000B685 11 43 1E 00        			cmp	r1,[_rectangle_jumping_off_page]
0000B687 03 5E              			je		rectangle_2	
                            			//大于
0000B688 40 F0 96 B6        			call 	rectangle_entity_frist		//rectangle_process1
0000B68A 90 9A              			retf
                            	rectangle_2:
                            			//等于
0000B68B 11 93 7C 00        			r1=[_public_area_sign]
0000B68D 09 43 FF 00        			cmp	r1,0xff
0000B68F 03 4E              			jne	rectangle_3
0000B690 40 F0 96 B6        			call 	rectangle_entity_frist		//rectangle_process1
0000B692 02 EE              			jmp	rectangle_4
                            	rectangle_3:		
0000B693 40 F0 D3 B6        			call 	rectangle_entity_second		//rectangle_process2	
                            	rectangle_4:						
0000B695 90 9A              			retf	
                            	
                            	//////////////////////////////////////////////////////////////////////////////
                            	//rectangle_process1
                            	//rectangle_entity_frist
                            	//////////////////////////////////////////////////////////////////////////////
                            	.external  tab_rectangle2
                            	.external  tab_rectangle1
                            	.external	_rectangle_jumping_off_page_temp
                            	//.public	rectangle_process1
                            	//rectangle_process1:		.proc
                            	rectangle_entity_frist:
0000B696 11 93 1E 00        			r1=[_rectangle_jumping_off_page]
0000B698 19 D3 76 00        			[_page]=r1
0000B69A 12 95 20 00        			r2=[_rectangle_jumping_off_bit]
0000B69C 09 93 52 80        	        r1=tab_rectangle2;
0000B69E 02 03              	        r1=r1+r2;
0000B69F C1 92              	        r1=[r1]
0000B6A0 19 D3 24 00        	        [rectangle_temp_bit]=r1
0000B6A2 40 F0 03 B7        	        call	rectangle_display_in_a_page		//rectangle_process3
0000B6A4 12 95 1E 00        	        r2=[_rectangle_jumping_off_page]
                            	//rectangle_process1_loop1:
                            	rectangle_entity_frist_loop:
0000B6A6 12 95 76 00        			r2=[_page]
0000B6A8 41 04              			r2+=0x01
0000B6A9 1A D5 76 00        			[_page]=r2
                            			
0000B6AB 48 44              			cmp	r2,0x08
                            			//jae	rectangle_process1_1
0000B6AC 11 1E              			jae	rectangle_entity_frist_1
0000B6AD 11 93 7C 00        			r1=[_public_area_sign]
0000B6AF 09 43 FF 00        			cmp	r1,	0xff
                            			//jne	rectangle_process1_2
                            			//jmp	rectangle_process1_3
0000B6B1 01 4E              			jne	rectangle_entity_frist_2
0000B6B2 03 EE              			jmp	rectangle_entity_frist_3
                            	//rectangle_process1_2:
                            	rectangle_entity_frist_2:
0000B6B3 12 45 22 00        			cmp	r2,[_rectangle_end_page]
                            			//jae	rectangle_process1_1
0000B6B5 08 1E              			jae	rectangle_entity_frist_1
                            	//rectangle_process1_3:
                            	rectangle_entity_frist_3:		
0000B6B6 09 93 FF 00        			r1=0xff
0000B6B8 19 D3 24 00        			[rectangle_temp_bit]=r1
0000B6BA 40 F0 03 B7        	        call	rectangle_display_in_a_page		//rectangle_process3
0000B6BC 80 FE A6 B6        			goto	 rectangle_entity_frist_loop		//rectangle_process1_loop1
                            	//rectangle_process1_1:
                            	rectangle_entity_frist_1:
0000B6BE 11 93 7C 00        			r1=[_public_area_sign]
0000B6C0 09 43 FF 00        			cmp	r1,	0xff
                            			//jne	rectangle_process1_4
                            			//jmp	rectangle_process1_5
0000B6C2 01 4E              			jne	rectangle_entity_frist_4
0000B6C3 0E EE              			jmp	rectangle_entity_frist_5
                            	//rectangle_process1_4:
                            	rectangle_entity_frist_4:
0000B6C4 11 93 22 00        			r1=[_rectangle_end_page]
0000B6C6 19 D3 76 00        			[_page]=r1
0000B6C8 12 95 23 00        			r2=[_rectangle_end_bit]
0000B6CA 09 93 49 80        	        r1=tab_rectangle1;
0000B6CC 02 03              	        r1=r1+r2;
0000B6CD C1 92              	        r1=[r1]
0000B6CE 19 D3 24 00        	        [rectangle_temp_bit]=r1
0000B6D0 40 F0 03 B7        	        call	rectangle_display_in_a_page		//rectangle_process3	
                            	//rectangle_process1_5:
                            	rectangle_entity_frist_5:         	      
0000B6D2 90 9A              			retf	
                            	
                            	//////////////////////////////////////////////////////////////////////////////
                            	//rectangle_process2
                            	//rectangle_entity_second
                            	//////////////////////////////////////////////////////////////////////////////
                            	.external		rectangle_temp_bit
                            	.external		rectangle_temp_page
                            	.external		_rectangle_jumping_off_bit_temp
                            	//.public	rectangle_process2
                            	//rectangle_process2:		.proc
                            	rectangle_entity_second:
0000B6D3 11 93 22 00        			r1=[_rectangle_end_page]
0000B6D5 19 D3 76 00        			[_page]=r1
0000B6D7 11 93 23 00        			r1=[_rectangle_end_bit]
0000B6D9 11 43 20 00        			cmp	r1,[_rectangle_jumping_off_bit]
                            			//jae	rectangle_process2_1
0000B6DB 01 1E              			jae	rectangle_entity_second_begin
0000B6DC 90 9A              			retf
                            	//rectangle_process2_1:
                            	rectangle_entity_second_begin:
0000B6DD 12 95 20 00        			r2=[_rectangle_jumping_off_bit]
0000B6DF 09 93 5B 80        	        r1=TAB_pixel;
0000B6E1 02 03              	        r1=r1+r2;
0000B6E2 C1 94              	        r2=[r1]
0000B6E3 1A D5 24 00        			[rectangle_temp_bit]=r2
0000B6E5 11 93 23 00        			r1=[_rectangle_end_bit]
0000B6E7 11 23 20 00        			r1-=[_rectangle_jumping_off_bit]
0000B6E9 01 97              			r3=r1
                            	//		cmp		r3,0x01
                            	//		je		rectangle_process2_loop
0000B6EA 40 46              			cmp		r3,0x00
                            			//je		rectangle_process2_2
0000B6EB 12 5E              			je		rectangle_entity_second_2
0000B6EC 12 95 24 00        			r2=[rectangle_temp_bit]
0000B6EE 1A D5 26 00        			[_rectangle_jumping_off_bit_temp]=r2
                            	//		r3-=0x01
                            	//rectangle_process2_loop:	
                            	rectangle_entity_second_loop:
0000B6F0 12 95 26 00        			r2=	[_rectangle_jumping_off_bit_temp]
0000B6F2 42 95              			r2=r2 lsl	0x01
0000B6F3 1A D5 26 00        			[_rectangle_jumping_off_bit_temp]=r2
0000B6F5 12 05 24 00        			r2+=[rectangle_temp_bit]
0000B6F7 1A D5 24 00        			[rectangle_temp_bit]=r2
0000B6F9 41 26              			r3-=0x01
0000B6FA 40 46              			cmp		r3,0x00
0000B6FB 02 8E              			jbe		rectangle_entity_second_2
0000B6FC 80 FE F0 B6        			goto	rectangle_entity_second_loop	
                            	rectangle_entity_second_2:
                            			//jbe		rectangle_process2_2
                            			//goto	rectangle_process2_loop	
                            	//rectangle_process2_2:
0000B6FE 11 93 24 00        			r1=[rectangle_temp_bit]	
0000B700 40 F0 03 B7        			call	rectangle_display_in_a_page		//rectangle_process3
                            	//rectangle_process2_3:
                            	rectangle_entity_second_3:	
0000B702 90 9A              			retf	
                            	
                            	//////////////////////////////////////////////////////////////////////////////
                            	//rectangle_process3
                            	//rectangle_display_in_a_page
                            	//////////////////////////////////////////////////////////////////////////////
                            	.external		_rectangle_wide_temp
                            	.external		 _rectangle_end_place_temp
                            	//.public	rectangle_process3
                            	//rectangle_process3:		.proc
                            	rectangle_display_in_a_page:
0000B703 11 93 1B 00        			r1=[_rectangle_wide]
0000B705 19 D3 2B 00        	        [_rectangle_wide_temp]=r1
0000B707 11 93 76 00        			R1 =[_page];                    
0000B709 40 F0 15 C4        	        CALL    F_Set_LCD_Page_No;
0000B70B 12 95 21 00        			R2 =[_rectangle_end_place]
0000B70D 1A D5 27 00        			[_rectangle_end_place_temp]=r2
0000B70F 40 F0 3E C4        	        CALL    F_Set_LCD_Column_Addr	
                            	rectangle_process3_loop:  
0000B711 40 F0 C0 C4        			call	_Read_Lcd_data
0000B713 7B 97              			r3=r3 lsr 0x04
0000B714 7B 97              			r3=r3 lsr 0x04
                            	rectangle_process3_loop_cover:	
0000B715 14 99 5D 00        			r4=[R_GraphicMode_temp]
0000B717 78 B8              			r4&=line_mode_bit
0000B718 40 48              	    	cmp r4,0x00
0000B719 02 4E              			jne	rectangle_process3_loop_erase
0000B71A 13 A7 24 00        			r3|=[rectangle_temp_bit]
                            	rectangle_process3_loop_erase:
0000B71C 78 B8              			r4&=line_mode_bit
0000B71D 48 48              			cmp r4,0x08
0000B71E 07 4E              			jne	rectangle_process3_loop_solid_xor
0000B71F 90 D4              			push r1,r2 to [sp]
0000B720 11 93 24 00        			r1=[rectangle_temp_bit]
0000B722 09 83 FF 00        			r1^=0xff
0000B724 01 B7              			r3&=r1
0000B725 90 90              			pop  r1,r2 from [sp]	
                            	rectangle_process3_loop_solid_xor:
0000B726 78 B8              			r4&=line_mode_bit
0000B727 70 48              			cmp r4,0x30
0000B728 0B 4E              			jne	rectangle_process3_mod_loop_end
0000B729 90 D4              			push r1,r2 to [sp]
0000B72A 11 93 24 00        			r1=[rectangle_temp_bit]
0000B72C 03 95              			r2=r3
0000B72D 01 B7              			r3&=r1
0000B72E 01 87              			r3^=r1
0000B72F 09 83 FF 00        			r1^=0xff
0000B731 01 B5              			r2&=r1
0000B732 02 A7              			r3|=r2		
0000B733 90 90              			pop  r1,r2 from [sp]
                            	rectangle_process3_mod_loop_end:
0000B734 12 95 27 00        			R2 =[_rectangle_end_place_temp]
                            	//		r2+=0x01
                            	//		[_rectangle_end_place_temp]=r2
0000B736 40 F0 3E C4        	        CALL    F_Set_LCD_Column_Addr;
                            	        
                            		
0000B738 40 F0 EE C4        			call	F_Display_point
                            			
0000B73A 12 95 27 00        			R2 =[_rectangle_end_place_temp]
0000B73C 41 04              			r2+=0x01
0000B73D 1A D5 27 00        			[_rectangle_end_place_temp]=r2
0000B73F 40 F0 3E C4        	        CALL    F_Set_LCD_Column_Addr;
                            	        
0000B741 11 93 2B 00        	        r1=[_rectangle_wide_temp]
0000B743 41 22              	        r1-=0x01
0000B744 19 D3 2B 00        	        [_rectangle_wide_temp]=r1
0000B746 40 42              	        cmp	r1,0x00
0000B747 02 5E              	        je	rectangle_process3_1
0000B748 80 FE 11 B7        	        goto	rectangle_process3_loop
                            	rectangle_process3_1:
0000B74A 90 9A              			retf	
                            	
                            	//////////////////////////////////////////////////////////////////////////////
                            	//Filename : _FG_Circle
                            	//Function  Description	:display a Circle on lcd 
                            	//Input    : [_ellipse_origin_y][_ellipse_origin_x]
                            	//			 [_ellipse_long_axes][_ellipse_short_axes]
                            	//Mode:
                            	//	DG_CIRCLE_COVER			(default)
                            	//	DG_CIRCLE_ERASE		
                            	//	DG_CIRCLE_HOLLOW	
                            	//	DG_CIRCLE_DOTTED	
                            	//	DG_CIRCLE_HOLLOW_ERASE	
                            	//	DG_CIRCLE_DOTTED_COVER	
                            	//	DG_CIRCLE_SOLID_XOR	
                            	//	DG_CIRCLE_DOTTED_XOR
                            	//usage: FG_Circle(short originx,short originy,short radius)
                            	//Destory  : R1,R2,R3,R4
                            	//////////////////////////////////////////////////////////////////////////////
                            	.public	_FG_Circle
                            	_FG_Circle:
0000B74B 88 DA              			PUSH BP,BP TO [SP]
0000B74C 00 93              			r1=sp
0000B74D 05 95              			r2=bp
0000B74E 1A D5 5C 00        			[bp_temp]=r2
0000B750 01 25              			r2-=r1
                            	L_Circle_Parameters_three:		
0000B751 47 44              			cmp	r2,0x07
0000B752 02 4E              			jne		L_Circle
0000B753 40 F0 59 B7        			call	F_Circle_Parameters_three
                            	L_Circle:		
                            	//		call	_ellipes
0000B755 40 F0 8B B7        			call	ellipes
0000B757 88 98              			pop	bp from	[sp]
0000B758 90 9A              			retf
                            	//------------------------------------------------------------------------------
                            	F_Circle_Parameters_three:
0000B759 12 95 5C 00        			r2=[bp_temp]
0000B75B 41 24              			r2-=0x01
0000B75C C2 92              			r1=[r2]
0000B75D 19 D3 2D 00        			[_ellipse_short_axes]=r1
0000B75F 19 D3 2C 00        			[_ellipse_long_axes]=r1
0000B761 41 24              			r2-=0x01
0000B762 C2 92              			r1=[r2]
0000B763 19 D3 31 00        			[_ellipse_origin_y]=r1
0000B765 41 24              			r2-=0x01
0000B766 C2 92              			r1=[r2]
0000B767 19 D3 30 00        			[_ellipse_origin_x]=r1		
0000B769 90 9A              			retf
                            	//////////////////////////////////////////////////////////////////////////////
                            	//Filename : _FG_Ellipse
                            	//Function  Description	:display a Ellipse on lcd 
                            	//Input    : [_ellipse_origin_y][_ellipse_origin_x]
                            	//			 [_ellipse_long_axes][_ellipse_short_axes]
                            	//Mode:
                            	//	DG_ELLIPSE_COVER			(default)
                            	//	DG_ELLIPSE_ERASE		
                            	//	DG_ELLIPSE_HOLLOW	
                            	//	DG_ELLIPSE_DOTTED	
                            	//	DG_ELLIPSE_HOLLOW_ERASE	
                            	//	DG_ELLIPSE_DOTTED_COVER	
                            	//	DG_ELLIPSE_SOLID_XOR	
                            	//
                            	//usage: FG_Ellipse(short originx,short originy,short radius)
                            	//Destory  : R1,R2,R3,R4
                            	//////////////////////////////////////////////////////////////////////////////
                            	.public		_FG_Ellipse
                            	_FG_Ellipse:
0000B76A 88 DA              			PUSH BP,BP TO [SP]
0000B76B 00 93              			r1=sp
0000B76C 05 95              			r2=bp
0000B76D 1A D5 5C 00        			[bp_temp]=r2
0000B76F 01 25              			r2-=r1
                            	L_Ellipse_Parameters_four:		
0000B770 48 44              			cmp	r2,0x08
0000B771 04 4E              			jne		L_Ellipse
0000B772 40 F0 78 B7        			call	F_Ellipse_Parameters_four		
0000B774 40 F0 8B B7        			call	ellipes
                            	L_Ellipse:	
0000B776 88 98              			pop	bp from	[sp]
                            			
0000B777 90 9A              			retf
                            	//----------------------------------------------------------------------------
                            	F_Ellipse_Parameters_four:
0000B778 12 95 5C 00        			r2=[bp_temp]
0000B77A 41 24              			r2-=0x01
0000B77B C2 92              			r1=[r2]
0000B77C 19 D3 2D 00        			[_ellipse_short_axes]=r1
0000B77E 41 24              			r2-=0x01
0000B77F C2 92              			r1=[r2]
0000B780 19 D3 2C 00        			[_ellipse_long_axes]=r1
0000B782 41 24              			r2-=0x01
0000B783 C2 92              			r1=[r2]
0000B784 19 D3 31 00        			[_ellipse_origin_y]=r1
0000B786 41 24              			r2-=0x01
0000B787 C2 92              			r1=[r2]
0000B788 19 D3 30 00        			[_ellipse_origin_x]=r1
0000B78A 90 9A              			retf
                            	//-----------------------------------------------------------------------------
                            	.external	_ellipse_long_axes
                            	.external	_ellipse_short_axes
                            	.external	_ellipse_x
                            	.external	_ellipse_y
                            	.external	_ellipse_origin_x
                            	.external	_ellipse_origin_y
                            	.external	_ellipse_x_temp							//public
                            	.external	_ellipse_y_temp							//public
                            	
                            	.external	_a_square_mul_y_square_l					//a平方乘以y平方
                            	.external	_a_square_mul_y_square_h					//a平方乘以y平方
                            	.external	_b_square_mul_x_square_l					//b平方乘以x平方
                            	.external	_b_square_mul_x_square_h					//b平方乘以x平方
                            	.external	_a_square_mul_b_square_l					//a平方乘以b平方
                            	.external	_a_square_mul_b_square_h					//b平方乘以b平方
                            	
                            	
                            	
                            	.external	_ellipse_reckon_offset_first_l				//椭圆计偏移量X-1，Y-1
                            	.external	_ellipse_reckon_offset_first_h				//椭圆计偏移量X-1，Y-1
                            	.external	_ellipse_reckon_offset_second_l				//椭圆计偏移量
                            	.external	_ellipse_reckon_offset_second_h				//椭圆计偏移量
                            	.external	_ellipse_reckon_offset_sign					//椭圆计偏移量符号
                            	
                            	ellipes:		.proc
0000B78B 40 92              			r1=0x00
0000B78C 19 D3 2E 00        			[_ellipse_x]=r1
0000B78E 11 93 2C 00        			r1=[_ellipse_long_axes]
0000B790 19 D3 39 00        			[_public_b]=r1
                            			
0000B792 11 93 2D 00        			r1=[_ellipse_short_axes]
0000B794 19 D3 38 00        			[_public_a]=r1
0000B796 19 D3 2F 00        			[_ellipse_y]=r1
0000B798 40 F0 49 BA        			call	_a_square_b_square
0000B79A 11 93 3A 00        			r1=[_public_a_squ_mul_b_squ_l]
0000B79C 19 D3 36 00        			[_a_square_mul_b_square_l]=r1
0000B79E 19 D3 44 00        			[_public_offset_in_a_l]=r1
0000B7A0 11 93 3B 00        			r1=[_public_a_squ_mul_b_squ_h]
0000B7A2 19 D3 37 00        			[_a_square_mul_b_square_h]=r1
0000B7A4 19 D3 45 00        			[_public_offset_in_a_h]=r1
                            			
0000B7A6 40 92              			r1=0x00
0000B7A7 11 03 30 00        			r1+=[_ellipse_origin_x]
0000B7A9 19 D3 78 00        			[_x]=r1
0000B7AB 11 93 2D 00        			r1=[_ellipse_short_axes]
0000B7AD 11 03 31 00        			r1+=[_ellipse_origin_y]
0000B7AF 19 D3 79 00        			[_y]=r1
0000B7B1 11 93 5E 00        			r1=[sign]
                            		
0000B7B3 14 99 5D 00        			r4=[R_GraphicMode_temp]
0000B7B5 70 B8              			r4&=0x0030
0000B7B6 50 48              			cmp r4,0x10
0000B7B7 03 4E              			jne	_ellipes_mode_solidcover1
0000B7B8 40 F0 F7 B8        			call  _ellipse_process3
0000B7BA 05 EE              			jmp _ellipes_loop
                            	_ellipes_mode_solidcover1:
0000B7BB 78 B8              			r4&=line_mode_bit
0000B7BC 60 48              			cmp r4,0x20
0000B7BD 02 4E              			jne	_ellipes_loop
0000B7BE 40 F0 F7 B8        			call  _ellipse_process3	
                            	_ellipes_loop:
                            	
0000B7C0 11 93 2F 00        			r1=[_ellipse_y]
0000B7C2 40 42              			cmp r1,0x00
0000B7C3 04 9E              			ja	ellipes_5
0000B7C4 80 FE AD B8        			goto	ellipse_end	
                            	ellipse_1_temp:
0000B7C6 80 FE 47 B8        			goto	ellipse_1
                            	ellipes_5:	
0000B7C8 11 93 2F 00        			r1=[_ellipse_y]
0000B7CA 41 22              			r1-=0x01
0000B7CB 19 D3 43 00        			[_ellipse_y_temp]=r1
0000B7CD 11 93 2E 00        			r1=[_ellipse_x]	
0000B7CF 41 02              			r1+=0x01
0000B7D0 19 D3 42 00        			[_ellipse_x_temp]=r1
                            				
0000B7D2 40 F0 AE B8        			call	_ellipse_process1
0000B7D4 40 F0 66 B9        			call	_offset
                            		
0000B7D6 11 93 4A 00        			r1=[_public_offset_out_l]
0000B7D8 19 D3 4D 00        			[_ellipse_reckon_offset_first_l]=r1
0000B7DA 11 93 4B 00        			r1=[_public_offset_out_h]
0000B7DC 19 D3 4E 00        			[_ellipse_reckon_offset_first_h]=r1	
0000B7DE 11 93 4C 00        			r1=	[_sign]
0000B7E0 19 D3 51 00        			[_ellipse_reckon_offset_sign]=r1
                            			
0000B7E2 11 93 51 00        			r1=[_ellipse_reckon_offset_sign]
0000B7E4 09 43 FF 00        			cmp		r1,0xff
0000B7E6 61 5E              			je		ellipse_1_temp
                            			//右上点
0000B7E7 11 93 2F 00        			r1=[_ellipse_y]
0000B7E9 19 D3 43 00        			[_ellipse_y_temp]=r1
0000B7EB 11 93 2E 00        			r1=[_ellipse_x]	
0000B7ED 41 02              			r1+=0x01
0000B7EE 19 D3 42 00        			[_ellipse_x_temp]=r1
0000B7F0 40 F0 AE B8        			call	_ellipse_process1
0000B7F2 40 F0 66 B9        			call	_offset
0000B7F4 11 93 4A 00        			r1=[_public_offset_out_l]
0000B7F6 19 D3 4F 00        			[_ellipse_reckon_offset_second_l]=r1
0000B7F8 11 93 4B 00        			r1=[_public_offset_out_h]
0000B7FA 19 D3 50 00        			[_ellipse_reckon_offset_second_h]=r1
                            		
0000B7FC 40 F0 DB B8        			call	_ellipse_process2
0000B7FE 40 92              			r1=0x00
0000B7FF 11 43 52 00        			cmp	r1,[_process_sign]
0000B801 26 5E              			je		ellipse_2
                            			//选择对角点
0000B802 11 93 2F 00        			r1=[_ellipse_y]								///***
0000B804 41 22              			r1-=0x01
0000B805 19 D3 2F 00        			[_ellipse_y]=r1
0000B807 11 03 31 00        			r1+=[_ellipse_origin_y]
0000B809 19 D3 79 00        			[_y]=r1
0000B80B 11 93 2E 00        			r1=[_ellipse_x]	
0000B80D 41 02              			r1+=0x01
0000B80E 19 D3 2E 00        			[_ellipse_x]=r1
0000B810 11 03 30 00        			r1+=[_ellipse_origin_x]
0000B812 19 D3 78 00        			[_x]=r1
                            	
0000B814 14 99 5D 00        			r4=[R_GraphicMode_temp]
0000B816 78 B8              			r4&=line_mode_bit
0000B817 50 48              			cmp r4,0x10
0000B818 04 4E              			jne	_ellipes_mode_solidcover2
0000B819 40 F0 F7 B8        			call  _ellipse_process3
0000B81B 80 FE C0 B7        			goto	_ellipes_loop
                            	_ellipes_mode_solidcover2:
0000B81D 78 B8              			r4&=line_mode_bit
0000B81E 60 48              			cmp r4,0x20
0000B81F 04 4E              			jne	ellipse_mode_solidecover3
0000B820 40 F0 F7 B8        			call  _ellipse_process3
0000B822 80 FE C0 B7        			goto	_ellipes_loop
                            	ellipse_mode_solidecover3:
0000B824 40 F0 2A B9        			call  _ellipse_process4	
                            					
0000B826 80 FE C0 B7        			goto	_ellipes_loop		
                            	ellipse_2:
                            			//选择右上点
0000B828 11 93 2F 00        			r1=[_ellipse_y]
0000B82A 19 D3 2F 00        			[_ellipse_y]=r1
0000B82C 11 03 31 00        			r1+=[_ellipse_origin_y]
0000B82E 19 D3 79 00        			[_y]=r1
0000B830 11 93 2E 00        			r1=[_ellipse_x]	
0000B832 41 02              			r1+=0x01
0000B833 19 D3 2E 00        			[_ellipse_x]=r1
0000B835 11 03 30 00        			r1+=[_ellipse_origin_x]
0000B837 19 D3 78 00        			[_x]=r1
                            	//		call  _ellipse_process3
                            	
0000B839 14 99 5D 00        			r4=[R_GraphicMode_temp]
0000B83B 78 B8              			r4&=line_mode_bit
0000B83C 50 48              			cmp r4,0x10
0000B83D 02 4E              			jne	_ellipes_mode_solidcover4
0000B83E 40 F0 F7 B8        			call  _ellipse_process3
                            	_ellipes_mode_solidcover4:
0000B840 78 B8              			r4&=line_mode_bit
0000B841 60 48              			cmp r4,0x20
0000B842 02 4E              			jne	ellipse_mode_solidecover5
0000B843 40 F0 F7 B8        			call  _ellipse_process3
                            	ellipse_mode_solidecover5:
                            			
0000B845 80 FE C0 B7        			goto	_ellipes_loop	
                            	ellipse_1:	
                            			//左下点
0000B847 11 93 2F 00        			r1=[_ellipse_y]							///****
0000B849 41 22              			r1-=0x01
0000B84A 19 D3 43 00        			[_ellipse_y_temp]=r1
0000B84C 11 93 2E 00        			r1=[_ellipse_x]	
                            	
0000B84E 19 D3 42 00        			[_ellipse_x_temp]=r1
0000B850 40 F0 AE B8        			call	_ellipse_process1
0000B852 40 F0 66 B9        			call	_offset
                            		
0000B854 11 93 4A 00        			r1=[_public_offset_out_l]
0000B856 19 D3 4F 00        			[_ellipse_reckon_offset_second_l]=r1
0000B858 11 93 4B 00        			r1=[_public_offset_out_h]
0000B85A 19 D3 50 00        			[_ellipse_reckon_offset_second_h]=r1	
0000B85C 40 F0 DB B8        			call	_ellipse_process2
0000B85E 40 92              			r1=0x00
0000B85F 11 43 52 00        			cmp	r1,[_process_sign]
0000B861 26 5E              			je		ellipse_3
                            			//选择对角点
0000B862 11 93 2F 00        			r1=[_ellipse_y]
0000B864 41 22              			r1-=0x01
0000B865 19 D3 2F 00        			[_ellipse_y]=r1				///****
0000B867 11 03 31 00        			r1+=[_ellipse_origin_y]
0000B869 19 D3 79 00        			[_y]=r1
0000B86B 11 93 2E 00        			r1=[_ellipse_x]	
0000B86D 41 02              			r1+=0x01
0000B86E 19 D3 2E 00        			[_ellipse_x]=r1
0000B870 11 03 30 00        			r1+=[_ellipse_origin_x]
0000B872 19 D3 78 00        			[_x]=r1
                            	//		call  _ellipse_process3
                            	
0000B874 14 99 5D 00        			r4=[R_GraphicMode_temp]
0000B876 78 B8              			r4&=line_mode_bit
0000B877 50 48              			cmp r4,0x10
0000B878 04 4E              			jne	_ellipes_mode_solidcover6
0000B879 40 F0 F7 B8        			call  _ellipse_process3
0000B87B 80 FE C0 B7        			goto	_ellipes_loop
                            	_ellipes_mode_solidcover6:
0000B87D 78 B8              			r4&=line_mode_bit
0000B87E 60 48              			cmp r4,0x20
0000B87F 04 4E              			jne	ellipse_mode_solidecover7
0000B880 40 F0 F7 B8        			call  _ellipse_process3
0000B882 80 FE C0 B7        			goto	_ellipes_loop
                            	ellipse_mode_solidecover7:
0000B884 40 F0 2A B9        			call  _ellipse_process4
0000B886 80 FE C0 B7        			goto	_ellipes_loop
                            	ellipse_3:
                            			//左下点
0000B888 11 93 2F 00        			r1=[_ellipse_y]
0000B88A 41 22              			r1-=0x01
0000B88B 19 D3 2F 00        			[_ellipse_y]=r1						///***
0000B88D 11 03 31 00        			r1+=[_ellipse_origin_y]
0000B88F 19 D3 79 00        			[_y]=r1
0000B891 11 93 2E 00        			r1=[_ellipse_x]	
0000B893 19 D3 2E 00        			[_ellipse_x]=r1
0000B895 11 03 30 00        			r1+=[_ellipse_origin_x]
0000B897 19 D3 78 00        			[_x]=r1
                            	//		call  _ellipse_process3
                            	
0000B899 14 99 5D 00        			r4=[R_GraphicMode_temp]
0000B89B 78 B8              			r4&=line_mode_bit
0000B89C 50 48              			cmp r4,0x10
0000B89D 04 4E              			jne	_ellipes_mode_solidcover8
0000B89E 40 F0 F7 B8        			call  _ellipse_process3
0000B8A0 80 FE C0 B7        			goto	_ellipes_loop
                            	_ellipes_mode_solidcover8:
0000B8A2 78 B8              			r4&=line_mode_bit
0000B8A3 60 48              			cmp r4,0x20
0000B8A4 04 4E              			jne	ellipse_mode_solidecover9
0000B8A5 40 F0 F7 B8        			call  _ellipse_process3
0000B8A7 80 FE C0 B7        			goto	_ellipes_loop
                            	ellipse_mode_solidecover9:
0000B8A9 40 F0 2A B9        			call  _ellipse_process4		
0000B8AB 80 FE C0 B7        			goto	_ellipes_loop				
                            	ellipse_end:
0000B8AD 90 9A              			retf
                            			.endp
                            	//////////////////////////////////////////////////////////////////////////////
                            	// ellipse process 1
                            	////////////////////////////////////////////////////////////////////////////// 
                            	.public		_ellipse_process1
                            	_ellipse_process1:	.proc
0000B8AE 11 93 2C 00        			r1=[_ellipse_long_axes]
0000B8B0 19 D3 39 00        			[_public_b]=r1
0000B8B2 11 93 43 00        			r1=[_ellipse_y_temp]
0000B8B4 19 D3 38 00        			[_public_a]=r1
0000B8B6 40 F0 49 BA        			call	_a_square_b_square
0000B8B8 11 93 3A 00        			r1=[_public_a_squ_mul_b_squ_l]
0000B8BA 19 D3 32 00        			[_a_square_mul_y_square_l]=r1
0000B8BC 19 D3 46 00        			[_public_offset_in_b_l]=r1
0000B8BE 11 93 3B 00        			r1=[_public_a_squ_mul_b_squ_h]
0000B8C0 19 D3 33 00        			[_a_square_mul_y_square_h]=r1
0000B8C2 19 D3 47 00        			[_public_offset_in_b_h]=r1
                            		
0000B8C4 11 93 2D 00        			r1=[_ellipse_short_axes]
0000B8C6 19 D3 39 00        			[_public_b]=r1
0000B8C8 11 93 42 00        			r1=[_ellipse_x_temp]
0000B8CA 19 D3 38 00        			[_public_a]=r1
0000B8CC 40 F0 49 BA        			call	_a_square_b_square
0000B8CE 11 93 3A 00        			r1=[_public_a_squ_mul_b_squ_l]
0000B8D0 19 D3 34 00        			[_b_square_mul_x_square_l]=r1
0000B8D2 19 D3 48 00        			[_public_offset_in_c_l]=r1
0000B8D4 11 93 3B 00        			r1=[_public_a_squ_mul_b_squ_h]
0000B8D6 19 D3 35 00        			[_b_square_mul_x_square_h]=r1
0000B8D8 19 D3 49 00        			[_public_offset_in_c_h]=r1
                            			
                            			
0000B8DA 90 9A              			retf
                            			.endp
                            	//////////////////////////////////////////////////////////////////////////////
                            	// ellipse process 2
                            	////////////////////////////////////////////////////////////////////////////// 
                            	.external		_process_sign
                            	.public	_ellipse_process2	
                            	_ellipse_process2:			.proc
0000B8DB 11 93 4E 00        			r1=[_ellipse_reckon_offset_first_h]	
0000B8DD 11 43 50 00        			cmp r1,[_ellipse_reckon_offset_second_h]
0000B8DF 12 0E              			jb	_ellipse_process2_1
                            			//大于等于
0000B8E0 11 93 4E 00        			r1=[_ellipse_reckon_offset_first_h]	
0000B8E2 11 43 50 00        			cmp r1,[_ellipse_reckon_offset_second_h]
0000B8E4 04 5E              			je	_ellipse_process2_2
0000B8E5 40 92              			r1=0x00
0000B8E6 19 D3 52 00        			[_process_sign]=r1
0000B8E8 90 9A              			retf
                            	_ellipse_process2_2:
                            			//高位等于
0000B8E9 11 93 4D 00        			r1=[_ellipse_reckon_offset_first_l]	
0000B8EB 11 43 4F 00        			cmp r1,[_ellipse_reckon_offset_second_l]
0000B8ED 04 0E              			jb	_ellipse_process2_1
0000B8EE 40 92              			r1=0x00
0000B8EF 19 D3 52 00        			[_process_sign]=r1
0000B8F1 90 9A              			retf		
                            	_ellipse_process2_1:
                            			//小于
0000B8F2 09 93 FF 00        			r1=0xff
0000B8F4 19 D3 52 00        			[_process_sign]=r1
                            			
0000B8F6 90 9A              			retf
                            			.endp
                            	//////////////////////////////////////////////////////////////////////////////
                            	// ellipse process 3
                            	////////////////////////////////////////////////////////////////////////////// 
                            	.public	_ellipse_process3	
                            	_ellipse_process3:			.proc
0000B8F7 11 93 5E 00        			r1=[sign]
0000B8F9 88 D2              			push r1 to [sp]
0000B8FA 40 F0 33 B4        			call  DISPLAY_A_POINT
0000B8FC 88 90              			pop  r1 from [sp]
0000B8FD 19 D3 5E 00        			[sign]=r1
0000B8FF 11 93 78 00        			r1=[_x]
0000B901 11 23 2E 00        			r1-=[_ellipse_x]
0000B903 11 23 2E 00        			r1-=[_ellipse_x]
0000B905 19 D3 78 00        			[_x]=r1
0000B907 11 93 5E 00        			r1=[sign]
0000B909 88 D2              			push r1 to [sp]
0000B90A 40 F0 33 B4        			call  DISPLAY_A_POINT
0000B90C 88 90              			pop  r1 from [sp]
0000B90D 19 D3 5E 00        			[sign]=r1
0000B90F 11 93 79 00        			r1=[_y]
0000B911 11 23 2F 00        			r1-=[_ellipse_y]
0000B913 11 23 2F 00        			r1-=[_ellipse_y]
0000B915 19 D3 79 00        			[_y]=r1
0000B917 11 93 5E 00        			r1=[sign]
0000B919 88 D2              			push r1 to [sp]
0000B91A 40 F0 33 B4        			call  DISPLAY_A_POINT
0000B91C 88 90              			pop  r1 from [sp]
0000B91D 19 D3 5E 00        			[sign]=r1
0000B91F 11 93 78 00        			r1=[_x]
0000B921 11 03 2E 00        			r1+=[_ellipse_x]
0000B923 11 03 2E 00        			r1+=[_ellipse_x]
0000B925 19 D3 78 00        			[_x]=r1
0000B927 40 F0 33 B4        			call  DISPLAY_A_POINT
0000B929 90 9A              			retf
                            			.endp	
                            	//////////////////////////////////////////////////////////////////////////////
                            	// ellipse process4
                            	////////////////////////////////////////////////////////////////////////////// 
                            	.public	_ellipse_process4
                            	_ellipse_process4:
0000B92A 11 93 79 00        			r1=[_y]
0000B92C 11 23 31 00        			r1-=[_ellipse_origin_y]
0000B92E 19 5E              			je	_ellipse_process4_1
0000B92F 11 93 78 00        			r1=[_x]
0000B931 19 D3 0E 00        			[_line_x0]=r1
0000B933 11 23 2E 00        			r1-=[_ellipse_x]
0000B935 11 43 2E 00        			cmp r1, [_ellipse_x]
0000B937 04 1E              			jae	_ellipse_process4_2
0000B938 40 92              			r1=0x00
0000B939 19 D3 0F 00        			[_line_x1]=r1
0000B93B 04 EE              			jmp _ellipse_process4_3
                            	_ellipse_process4_2:
0000B93C 11 23 2E 00        			r1-=[_ellipse_x]	
0000B93E 19 D3 0F 00        			[_line_x1]=r1
                            	_ellipse_process4_3:		
0000B940 11 93 79 00        			r1=[_y]
0000B942 19 D3 10 00        			[_line_y0]=r1
0000B944 19 D3 11 00        			[_line_y1]=r1
0000B946 40 F0 BC B2        			call	DISPLAY_A_LINE
                            	_ellipse_process4_1:	
0000B948 11 93 79 00        			r1=[_y]
0000B94A 11 23 2F 00        			r1-=[_ellipse_y]
0000B94C 11 23 2F 00        			r1-=[_ellipse_y]
0000B94E 19 D3 10 00        			[_line_y0]=r1
0000B950 19 D3 11 00        			[_line_y1]=r1
0000B952 11 93 78 00        			r1=[_x]
0000B954 19 D3 0E 00        			[_line_x0]=r1
0000B956 11 23 2E 00        			r1-=[_ellipse_x]
0000B958 11 43 2E 00        			cmp r1, [_ellipse_x]
0000B95A 04 1E              			jae	_ellipse_process4_4
0000B95B 40 92              			r1=0x00
0000B95C 19 D3 0F 00        			[_line_x1]=r1
0000B95E 04 EE              			jmp _ellipse_process4_5
                            	_ellipse_process4_4:
0000B95F 11 23 2E 00        			r1-=[_ellipse_x]	
0000B961 19 D3 0F 00        			[_line_x1]=r1
                            	_ellipse_process4_5:
0000B963 40 F0 BC B2        			call	DISPLAY_A_LINE
0000B965 90 9A              			retf
                            	//////////////////////////////////////////////////////////////////////////////
                            	// work out offset 
                            	// put in  [_public_offset_in_a_l][_public_offset_in_a_h]
                            	//         [_public_offset_in_b_l][_public_offset_in_b_h]
                            	//         [_public_offset_in_c_l][_public_offset_in_c_h] 
                            	// put out [_public_offset_out_l][_public_offset_out_h]
                            	//		   [_sign]
                            	////////////////////////////////////////////////////////////////////////////// 
                            	.external		_public_offset_in_a_l				//输入a2b2
                            	.external		_public_offset_in_a_h				//输入a2b2
                            	.external		_public_offset_in_b_l				//输入a2y2
                            	.external		_public_offset_in_b_h				//输入a2y2
                            	.external		_public_offset_in_c_l				//输入b2x2
                            	.external		_public_offset_in_c_h				//输入b2x2
                            	.external		_public_offset_out_l				//输出
                            	.external		_public_offset_out_h				//输出
                            	.external		_sign								//符号[00]+[ff]-
                            	
                            	
                            	.public				_offset
                            	_offset:			.proc
0000B966 11 93 44 00        			r1=[_public_offset_in_a_l]
0000B968 19 D3 3E 00        			[_public_c_l]=r1
0000B96A 11 93 45 00        			r1=[_public_offset_in_a_h]
0000B96C 19 D3 3F 00        			[_public_c_h]=r1		
0000B96E 11 93 46 00        			r1=[_public_offset_in_b_l]
0000B970 19 D3 40 00        			[_public_d_l]=r1
0000B972 11 93 47 00        			r1=[_public_offset_in_b_h]
0000B974 19 D3 41 00        			[_public_d_h]=r1
0000B976 40 F0 0F BA        			call	_sub
                            			
0000B978 11 93 3D 00        			r1=[_public_sbc_h]
0000B97A 11 43 49 00        			cmp	r1,[_public_offset_in_c_h]
0000B97C 1F 1E              			jae		offset_1
                            			//小于
0000B97D 11 93 48 00        			r1=[_public_offset_in_c_l]
0000B97F 19 D3 3E 00        			[_public_c_l]=r1
0000B981 11 93 49 00        			r1=[_public_offset_in_c_h]
0000B983 19 D3 3F 00        			[_public_c_h]=r1		
0000B985 11 93 3D 00        			r1=[_public_sbc_h]
0000B987 19 D3 41 00        			[_public_d_h]=r1
0000B989 11 93 3C 00        			r1=[_public_sbc_l]
0000B98B 19 D3 40 00        			[_public_d_l]=r1
0000B98D 40 F0 0F BA        			call	_sub
0000B98F 11 93 46 00        			r1=[_public_offset_in_b_l]
0000B991 19 D3 40 00        			[_public_d_l]=r1
0000B993 11 93 47 00        			r1=[_public_offset_in_b_h]
0000B995 19 D3 41 00        			[_public_d_h]=r1
0000B997 09 93 FF 00        			r1=0xff
0000B999 19 D3 4C 00        			[_sign]=r1
0000B99B 90 9A              			retf
                            	offset_1:
0000B99C 11 93 3D 00        			r1=[_public_sbc_h]
0000B99E 11 43 49 00        			cmp	r1,[_public_offset_in_c_h]
0000B9A0 1E 5E              			je		offset_2	
                            			//大于
0000B9A1 11 93 3C 00        			r1=[_public_sbc_l]
0000B9A3 19 D3 3E 00        			[_public_c_l]=r1
0000B9A5 11 93 3D 00        			r1=[_public_sbc_h]
0000B9A7 19 D3 3F 00        			[_public_c_h]=r1
0000B9A9 11 93 48 00        			r1=[_public_offset_in_c_l]
0000B9AB 19 D3 40 00        			[_public_d_l]=r1
0000B9AD 11 93 49 00        			r1=[_public_offset_in_c_h]
0000B9AF 19 D3 41 00        			[_public_d_h]=r1		
0000B9B1 40 F0 0F BA        			call	_sub
0000B9B3 11 93 3C 00        			r1=[_public_sbc_l]
0000B9B5 19 D3 4A 00        			[_public_offset_out_l]=r1
0000B9B7 11 93 3D 00        			r1=[_public_sbc_h]
0000B9B9 19 D3 4B 00        			[_public_offset_out_h]=r1
0000B9BB 40 92              			r1=0x00
0000B9BC 19 D3 4C 00        			[_sign]=r1
0000B9BE 90 9A              			retf
                            	
                            	offset_2:
                            			//高位等于	
0000B9BF 11 93 3C 00        			r1=[_public_sbc_l]
0000B9C1 11 43 48 00        			cmp	r1,[_public_offset_in_c_l]
0000B9C3 1F 1E              			jae		offset_3
                            			//小于
0000B9C4 11 93 48 00        			r1=[_public_offset_in_c_l]
0000B9C6 19 D3 3E 00        			[_public_c_l]=r1
0000B9C8 11 93 49 00        			r1=[_public_offset_in_c_h]
0000B9CA 19 D3 3F 00        			[_public_c_h]=r1		
0000B9CC 11 93 3D 00        			r1=[_public_sbc_h]
0000B9CE 19 D3 41 00        			[_public_d_h]=r1
0000B9D0 11 93 3C 00        			r1=[_public_sbc_l]
0000B9D2 19 D3 40 00        			[_public_d_l]=r1
0000B9D4 40 F0 0F BA        			call	_sub
0000B9D6 11 93 3C 00        			r1=[_public_sbc_l]
0000B9D8 19 D3 4A 00        			[_public_offset_out_l]=r1
0000B9DA 11 93 3D 00        			r1=[_public_sbc_h]
0000B9DC 19 D3 4B 00        			[_public_offset_out_h]=r1
0000B9DE 09 93 FF 00        			r1=0xff
0000B9E0 19 D3 4C 00        			[_sign]=r1
0000B9E2 90 9A              			retf
                            	
                            	offset_3:
0000B9E3 11 93 3C 00        			r1=[_public_sbc_l]
0000B9E5 11 43 48 00        			cmp	r1,[_public_offset_in_c_l]
0000B9E7 1E 5E              			je		offset_4	
                            			//大于
0000B9E8 11 93 3C 00        			r1=[_public_sbc_l]
0000B9EA 19 D3 3E 00        			[_public_c_l]=r1
0000B9EC 11 93 3D 00        			r1=[_public_sbc_h]
0000B9EE 19 D3 3F 00        			[_public_c_h]=r1
0000B9F0 11 93 48 00        			r1=[_public_offset_in_c_l]
0000B9F2 19 D3 40 00        			[_public_d_l]=r1
0000B9F4 11 93 49 00        			r1=[_public_offset_in_c_h]
0000B9F6 19 D3 41 00        			[_public_d_h]=r1		
0000B9F8 40 F0 0F BA        			call	_sub
0000B9FA 11 93 3C 00        			r1=[_public_sbc_l]
0000B9FC 19 D3 4A 00        			[_public_offset_out_l]=r1
0000B9FE 11 93 3D 00        			r1=[_public_sbc_h]
0000BA00 19 D3 4B 00        			[_public_offset_out_h]=r1
0000BA02 40 92              			r1=0x00
0000BA03 19 D3 4C 00        			[_sign]=r1
0000BA05 90 9A              			retf
                            	
                            	offset_4:
                            			//等于
0000BA06 40 92              			r1=0x00
0000BA07 19 D3 4A 00        			[_public_offset_out_l]=r1
0000BA09 19 D3 4B 00        			[_public_offset_out_h]=r1
0000BA0B 40 92              			r1=0x00
0000BA0C 19 D3 4C 00        			[_sign]=r1
0000BA0E 90 9A              			retf
                            			.endp
                            	
                            	//////////////////////////////////////////////////////////////////////////////
                            	// work out double beyte sub	c-d	
                            	// put in  [_public_c_l][_public_c_h][_public_d_l][_public_d_h] 
                            	// put out [_public_sbc_l][_public_sbc_h]
                            	////////////////////////////////////////////////////////////////////////////// 
                            	.external	_public_c_l									//public 
                            	.external	_public_c_h									//public 
                            	.external	_public_d_l									//public
                            	.external	_public_d_h									//public
                            	.external	_public_sbc_l
                            	.external	_public_sbc_h
                            	.public _sub
                            	_sub:	.proc
0000BA0F 11 93 3E 00        			r1=[_public_c_l]
0000BA11 12 95 40 00        			r2=[_public_d_l]
0000BA13 02 43              			cmp	r1,r2
0000BA14 0C 8E              			jbe		sub_1
0000BA15 02 23              			r1-=r2
0000BA16 19 D3 3C 00        			[_public_sbc_l]=r1
0000BA18 11 93 3F 00        			r1=[_public_c_h]
0000BA1A 12 95 41 00        			r2=[_public_d_h]
0000BA1C 02 23              			r1-=r2
0000BA1D 19 D3 3D 00        			[_public_sbc_h]=r1
0000BA1F 80 FE 48 BA        			goto	sub_3
                            	sub_1:
0000BA21 11 93 3E 00        			r1=[_public_c_l]
0000BA23 12 95 40 00        			r2=[_public_d_l]
0000BA25 02 43              			cmp	r1,r2
0000BA26 17 5E              			je		sub_2
0000BA27 11 93 3F 00        			r1=[_public_c_h]
0000BA29 41 22              			r1-=0x01
0000BA2A 19 D3 3D 00        			[_public_sbc_h]=r1
0000BA2C 09 93 FF FF        			r1=0xffff
0000BA2E 11 23 40 00        			r1-=[_public_d_l]
0000BA30 11 03 3E 00        			r1+=[_public_c_l]
0000BA32 41 02              			r1+=0x01
0000BA33 19 D3 3C 00        			[_public_sbc_l]=r1
0000BA35 11 93 3D 00        			r1=[_public_sbc_h]
0000BA37 12 95 41 00        			r2=[_public_d_h]
0000BA39 02 23              			r1-=r2
0000BA3A 19 D3 3D 00        			[_public_sbc_h]=r1
0000BA3C 80 FE 48 BA        			goto	sub_3
                            	sub_2:
0000BA3E 40 92              			r1=0x00
0000BA3F 19 D3 3C 00        			[_public_sbc_l]=r1
0000BA41 11 93 3F 00        			r1=[_public_c_h]
0000BA43 12 95 41 00        			r2=[_public_d_h]
0000BA45 02 23              			r1-=r2
0000BA46 19 D3 3D 00        			[_public_sbc_h]=r1
                            	sub_3:
0000BA48 90 9A              			retf
                            			.endp
                            	
                            	//////////////////////////////////////////////////////////////////////////////
                            	// work out a square mul b square
                            	//put in  [_public_b][_public_a]
                            	//put out [_public_a_squ_mul_b_squ_l]
                            	//  	  [_public_a_squ_mul_b_squ_h]
                            	//////////////////////////////////////////////////////////////////////////////   
                            	.external	_public_b
                            	.external	_public_a
                            	.external	_public_a_squ_mul_b_squ_l
                            	.external	_public_a_squ_mul_b_squ_h   
                            	.public				_a_square_b_square
                            	_a_square_b_square:		.proc
0000BA49 11 93 39 00        			r1=[_public_b]
0000BA4B 12 95 39 00        			r2=[_public_b]
0000BA4D 0A F3              			mr=r1*r2
0000BA4E 1B D7 39 00        			[_public_b]=r3
0000BA50 11 93 38 00        			r1=[_public_a]
0000BA52 12 95 38 00        			r2=[_public_a]
0000BA54 0A F3              			mr=r1*r2
0000BA55 1B D7 38 00        			[_public_a]=r3
0000BA57 11 93 39 00        			r1=[_public_b]
0000BA59 12 95 38 00        			r2=[_public_a]
0000BA5B 0A F3              			mr=r1*r2
0000BA5C 1B D7 3A 00        			[_public_a_squ_mul_b_squ_l]=r3
0000BA5E 1C D9 3B 00        			[_public_a_squ_mul_b_squ_h]=r4
0000BA60 90 9A              			retf
                            			.endp	
                            	//////////////////////////////////////////////////////////////////////////////
                            	//Filename : FG_PutChar
                            	//Function  Description	:display a Char on lcd 
                            	//Input    : [char][font] [startx][starty]
                            	//mode:		
                            	//	DG_CHAR_COVER	(default)
                            	//	DG_CHAR_CLEAR
                            	//	DG_CHAR_XOR	
                            	//font:
                            	//		tiny(default)
                            	//		small	
                            	//		smallb	
                            	//		large	
                            	//		narrow	
                            	//usage: FG_PutChar(char char,short font,short startx,short starty)
                            	//Destory  : R1,R2,R3,R4
                            	//////////////////////////////////////////////////////////////////////////////
                            	.external	tiny
                            	.external	narrow1
                            	.external	tiny3
                            	.external	large1
                            	.external	smallb1
                            	.external	small1
                            	.external	charnum										//字符序号
                            	.external	charwide									//字符宽度
                            	.external	charhigh									//字符高
                            	.external	chartemp
                            	.external	label4
                            	.external	constant
                            	.public		_FG_PutChar		
                            	_FG_PutChar:	.proc
0000BA61 88 DA              			PUSH BP,BP TO [SP]
0000BA62 00 93              			r1=sp
0000BA63 05 95              			r2=bp
0000BA64 1A D5 5C 00        			[bp_temp]=r2
0000BA66 01 25              			r2-=r1
                            	L_Char_Parameters_two:
0000BA67 46 44              			cmp	r2,0x06
0000BA68 03 4E              			jne	L_Char_Parameters_four
0000BA69 40 F0 74 BA        			call	F_Char_Parameters_two
0000BA6B 04 EE              			jmp		L_Char
                            	L_Char_Parameters_four:		
0000BA6C 48 44              			cmp	r2,0x08
0000BA6D 02 4E              			jne		L_Char
0000BA6E 40 F0 BE BA        			call	F_Char_Parameters_four
                            	L_Char:		
                            			//		call	PutChar_tiny
                            			//		call	PutChar_small
                            			//		call	PutChar_large	
0000BA70 40 F0 CA BA        			call	PutChar
0000BA72 88 98              			pop	bp from	[sp]
0000BA73 90 9A              			retf	 
                            			.endp
                            	//----------------------------------------------------------------------------
                            	//bit8		tiny标志
                            	//bit9		small标志
                            	//bit10		smallb标志
                            	//bit11		large标志
                            	//bit12		narrow标志
                            	F_Char_Parameters_two:
0000BA74 11 93 A1 00        			r1=[_x0]
0000BA76 19 D3 04 00        			[image_jumpoff_point_x]=r1
0000BA78 11 93 A2 00        			r1=[_y0]
0000BA7A 19 D3 05 00        			[image_jumpoff_point_y]=r1
0000BA7C 12 95 5C 00        			r2=[bp_temp]
                            	F_Char_Parameters_two_four:		
0000BA7E 13 97 5E 00        			r3=[sign]
0000BA80 0B B7 FF E0        			r3&=0xe0ff
0000BA82 1B D7 5E 00        			[sign]=r3
0000BA84 41 24              			r2-=0x01
0000BA85 C2 92              			r1=[r2]
                            	char_parameter_two_tiny:	
0000BA86 40 42              			cmp	r1,0x00
0000BA87 07 4E              			jne	char_parameter_two_small
0000BA88 13 97 5E 00        			r3=[sign]
0000BA8A 0B A7 00 01        			r3|=0x0100
0000BA8C 1B D7 5E 00        			[sign]=r3
0000BA8E 23 EE              			jmp char_parameter_two_modend
                            	char_parameter_two_small:
0000BA8F 41 42              			cmp	r1,0x01
0000BA90 07 4E              			jne	char_parameter_two_smallb
0000BA91 13 97 5E 00        			r3=[sign]
0000BA93 0B A7 00 02        			r3|=0x0200
0000BA95 1B D7 5E 00        			[sign]=r3
0000BA97 1A EE              			jmp char_parameter_two_modend
                            	char_parameter_two_smallb:
0000BA98 42 42              			cmp	r1,0x02
0000BA99 07 4E              			jne	char_parameter_two_large
0000BA9A 13 97 5E 00        			r3=[sign]
0000BA9C 0B A7 00 04        			r3|=0x0400
0000BA9E 1B D7 5E 00        			[sign]=r3
0000BAA0 11 EE              			jmp char_parameter_two_modend
                            	char_parameter_two_large:
0000BAA1 43 42              			cmp	r1,0x03
0000BAA2 07 4E              			jne	char_parameter_two_narrow
0000BAA3 13 97 5E 00        			r3=[sign]
0000BAA5 0B A7 00 08        			r3|=0x0800
0000BAA7 1B D7 5E 00        			[sign]=r3
0000BAA9 08 EE              			jmp	char_parameter_two_modend
                            	char_parameter_two_narrow:
0000BAAA 44 42              			cmp	r1,0x04
0000BAAB 06 4E              			jne	char_parameter_two_modend
0000BAAC 13 97 5E 00        			r3=[sign]
0000BAAE 0B A7 00 10        			r3|=0x1000
0000BAB0 1B D7 5E 00        			[sign]=r3
                            	char_parameter_two_modend:
0000BAB2 41 24              			r2-=0x01
0000BAB3 C2 92              			r1=[r2]
0000BAB4 09 43 95 00        			cmp r1,0x95
0000BAB6 03 0E              			jb	char_parameter_two_loop_1
0000BAB7 64 22              			r1-=0x24
0000BAB8 19 D3 53 00        			[charnum]=r1
                            	char_parameter_two_loop_1:		
0000BABA 5F 22              			r1-=0x1f
0000BABB 19 D3 53 00        			[charnum]=r1
0000BABD 90 9A              			retf
                            	//----------------------------------------
                            	F_Char_Parameters_four:
                            	//		r1=[R_GraphicMode_temp]
                            	///		r1&=dotted_mode_bit_clear
                            	//		[R_GraphicMode_temp]=r1
                            	//		r1=[R_GraphicMode]
                            	//		r1&=dotted_mode_bit
                            	//		r1|=[R_GraphicMode_temp]
                            	//		[R_GraphicMode_temp]=r1
0000BABE 12 95 5C 00        			r2=[bp_temp]
0000BAC0 41 24              			r2-=0x01
0000BAC1 C2 92              			r1=[r2]
0000BAC2 19 D3 05 00        			[image_jumpoff_point_y]=r1
0000BAC4 41 24              			r2-=0x01
0000BAC5 C2 92              			r1=[r2]
0000BAC6 19 D3 04 00        			[image_jumpoff_point_x]=r1
0000BAC8 80 FE 7E BA        			goto F_Char_Parameters_two_four
                            	//		retf
                            	//----------------------------------------------------------------------------	
                            	PutChar:
0000BACA 11 93 5E 00        			r1=[sign]
0000BACC 09 B3 00 01        			r1&=0x0100
0000BACE 03 5E              			jz PutChar_other
0000BACF 40 F0 D5 BA        			call PutChar_tiny
0000BAD1 02 EE              			jmp	PutChar_end
                            	PutChar_other:	
0000BAD2 40 F0 4F BB        			call	PutChar_othermode
                            	PutChar_end:	
0000BAD4 90 9A              			retf
                            	//////////////////////////////////////////////////////////////////////////////
                            	//r2-->pointer   r3-->字号	r1-->data
                            	PutChar_tiny:		
                            			////////////1
0000BAD5 41 96              			r3=0x01
0000BAD6 1B D7 02 00        			[image_width_byte]=r3
0000BAD8 40 96              			r3=0x00				//存入字号
0000BAD9 1B D7 55 00        			[charhigh]=r3
                            		//	[image_high_bit]=r3
0000BADB 11 93 5E 00        			r1=[sign]
0000BADD 09 B3 FD FF        			r1&=0xfffd
0000BADF 19 D3 5E 00        			[sign]=r1
0000BAE1 09 93 80 00        			r1=label4
0000BAE3 41 02              			r1+=0x01
0000BAE4 19 D3 06 00        			[image_tab]=r1
                            			/////////////
0000BAE6 0A 95 97 80        			r2=tiny3
0000BAE8 16 AD 01 00        			sr|=[bank1]
0000BAEA E2 92              			r1=d:[r2]
0000BAEB 02 EE              			jmp	PutChar_tiny_find_data2
                            	PutChar_tiny_find_data:	
0000BAEC 41 04              			r2+=0x01
0000BAED E2 92              			r1=d:[r2]
                            	PutChar_tiny_find_data2:	
0000BAEE 19 D3 57 00        			[chartemp]=r1
0000BAF0 09 B3 00 FF        			r1&=0xff00
0000BAF2 79 93              			r1=r1 lsr 0x04
0000BAF3 79 93              			r1=r1 lsr 0x04
0000BAF4 09 43 FF 00        			cmp r1,0xff
0000BAF6 07 4E              			jne	PutChar_tiny_find_data1
0000BAF7 41 06              			r3+=0x01
0000BAF8 13 47 53 00        			cmp	r3	,[charnum]
0000BAFA 03 4E              			jne	PutChar_tiny_find_data1
0000BAFB 40 F0 1C BB        			call	PutChar_tiny_get_data
0000BAFD 12 EE              			jmp	PutChar_tiny_find_data3
                            	PutChar_tiny_find_data1:
0000BAFE 11 93 57 00        			r1=[chartemp]
0000BB00 09 B3 FF 00        			r1&=0x00ff
0000BB02 09 43 FF 00        			cmp r1,0xff
0000BB04 59 4E              			jne	PutChar_tiny_find_data
0000BB05 41 06              			r3+=0x01
0000BB06 13 47 53 00        			cmp	r3	,[charnum]
0000BB08 5D 4E              			jne	PutChar_tiny_find_data
0000BB09 11 93 5E 00        			r1=[sign]
0000BB0B 42 A2              			r1|=0x02
0000BB0C 19 D3 5E 00        			[sign]=r1
0000BB0E 40 F0 1C BB        			call	PutChar_tiny_get_data
                            	PutChar_tiny_find_data3:		
0000BB10 11 93 5E 00        			r1=[sign]
0000BB12 44 B2              			r1&=0x04
0000BB13 07 4E              			jnz	PutChar_tiny_find_end
                            			
0000BB14 11 93 5E 00        			r1=[sign]
0000BB16 41 A2              			r1|=0x01
0000BB17 19 D3 5E 00        			[sign]=r1
                            			
0000BB19 40 F0 40 AF        			call	F_image
                            	PutChar_tiny_find_end:		
0000BB1B 90 9A              			retf	 
                            	//--------------------------------------------------	
                            	PutChar_tiny_get_data:
                            			///////
0000BB1C 0C 99 80 00        			r4=label4
                            			///////
0000BB1E 11 93 5E 00        			r1=[sign]
0000BB20 42 B2              			r1&=0x0002
0000BB21 05 4E              			jnz	tiny_get_data1
                            			//r1未取完
0000BB22 40 92              			r1=0x00
0000BB23 C4 D2              			[r4]=r1
0000BB24 40 F0 2A BB        			call	tiny_full_data
0000BB26 90 9A              			retf
                            	tiny_get_data1:		
                            			//r1取完
0000BB27 40 F0 2A BB        			call	tiny_full_data
0000BB29 90 9A              			retf
                            	//--------------------------------------------------
                            	//r3-->charhigh	r4-->full pointer r2-->data pointer r1-->data
                            	//--------------------------------------------------
                            	tiny_full_data:
                            			///////
0000BB2A 40 96              			r3=0x00
                            			///////
                            	tiny_full_data1:	
0000BB2B 41 04              			r2+=0x01
0000BB2C 16 AD 01 00        			sr|=[bank1]
0000BB2E E2 92              			r1=d:[r2]
0000BB2F 88 D2              			push r1 to [sp]
0000BB30 09 B3 00 FF        			r1&=0xff00
0000BB32 79 93              			r1=r1 lsr 0x04
0000BB33 79 93              			r1=r1 lsr 0x04
0000BB34 09 43 FF 00        			cmp r1,0xff
0000BB36 06 4E              			jne	tiny_full_data2
0000BB37 88 90              			pop r1 from [sp]
0000BB38 1B D7 55 00        			[charhigh]=r3
0000BB3A 1B D7 03 00        			[image_high_bit]=r3	
0000BB3C 90 9A              			retf
                            	tiny_full_data2:
0000BB3D 41 06              			r3+=0x01
0000BB3E 41 08              			r4+=0x01
0000BB3F C4 D2              			[r4]=r1	
0000BB40 88 90              			pop r1 from [sp]
0000BB41 09 B3 FF 00        			r1&=0x00ff
0000BB43 09 43 FF 00        			cmp r1,0xff
0000BB45 04 5E              			je	tiny_full_data3
0000BB46 41 06              			r3+=0x01
0000BB47 41 08              			r4+=0x01
0000BB48 C4 D2              			[r4]=r1	
0000BB49 5F EE              			jmp	tiny_full_data1
                            	tiny_full_data3:
0000BB4A 1B D7 55 00        			[charhigh]=r3
0000BB4C 1B D7 03 00        			[image_high_bit]=r3				
0000BB4E 90 9A              			retf
                            	//--------------------------------------------------
                            	//**************************************************
                            	PutChar_othermode:				
                            			////////////1
0000BB4F 42 96              			r3=0x02
0000BB50 1B D7 02 00        			[image_width_byte]=r3
0000BB52 40 96              			r3=0x00				
0000BB53 1B D7 55 00        			[charhigh]=r3
                            		//	[image_high_bit]=r3
0000BB55 09 93 80 00        			r1=label4
0000BB57 19 D3 06 00        			[image_tab]=r1
                            			/////////////
                            	PutChar_othermode_small:
0000BB59 11 93 5E 00        			r1=[sign]
0000BB5B 09 B3 00 02        			r1&=0x0200
0000BB5D 07 5E              			jz	PutChar_othermode_smallb
0000BB5E 0A 95 DD 8D        			r2=small1
0000BB60 09 93 C0 FF        			r1=0xffc0
0000BB62 19 D3 58 00        			[constant]=r1
0000BB64 23 EE              			jmp	PutChar_modechange_end
                            	PutChar_othermode_smallb:	
0000BB65 11 93 5E 00        			r1=[sign]
0000BB67 09 B3 00 04        			r1&=0x0400
0000BB69 07 5E              			jz 	PutChar_othermode_large
0000BB6A 0A 95 90 88        			r2=smallb1
0000BB6C 09 93 C0 FF        			r1=0xffc0
0000BB6E 19 D3 58 00        			[constant]=r1
0000BB70 17 EE              			jmp	PutChar_modechange_end
                            	PutChar_othermode_large:	
0000BB71 11 93 5E 00        			r1=[sign]
0000BB73 09 B3 00 08        			r1&=0x0800
0000BB75 07 5E              			jz	PutChar_othermode_narrow
0000BB76 0A 95 CF 82        			r2=large1
0000BB78 09 93 F8 FF        			r1=0xfff8
0000BB7A 19 D3 58 00        			[constant]=r1
0000BB7C 0B EE              			jmp	PutChar_modechange_end
                            	PutChar_othermode_narrow:	
0000BB7D 11 93 5E 00        			r1=[sign]
0000BB7F 09 B3 00 10        			r1&=0x1000
0000BB81 06 5E              			jz	PutChar_modechange_end
0000BB82 0A 95 CB 92        			r2=narrow1
0000BB84 09 93 C0 FF        			r1=0xffc0
0000BB86 19 D3 58 00        			[constant]=r1
                            	PutChar_modechange_end:	
0000BB88 16 AD 01 00        			sr|=[bank1]
0000BB8A E2 92              			r1=d:[r2]
0000BB8B 02 EE              			jmp	PutChar_small_find_data2
                            	PutChar_small_find_data:	
0000BB8C 41 04              			r2+=0x01
0000BB8D E2 92              			r1=d:[r2]
                            	PutChar_small_find_data2:	
0000BB8E 11 43 58 00        			cmp r1,[constant] //0xfff8
0000BB90 45 4E              			jne	PutChar_small_find_data
0000BB91 41 06              			r3+=0x01
0000BB92 13 47 53 00        			cmp	r3	,[charnum]
0000BB94 49 4E              			jne	PutChar_small_find_data
0000BB95 40 F0 A3 BB        			call	PutChar_small_get_data
                            	PutChar_small_find_data1:		
0000BB97 11 93 5E 00        			r1=[sign]
0000BB99 44 B2              			r1&=0x04
0000BB9A 07 4E              			jnz	PutChar_other_find_end
0000BB9B 11 93 5E 00        			r1=[sign]
0000BB9D 41 A2              			r1|=0x01
0000BB9E 19 D3 5E 00        			[sign]=r1
0000BBA0 40 F0 40 AF        			call	F_image
                            	PutChar_other_find_end:		
0000BBA2 90 9A              			retf
                            	//--------------------------------------------------
                            	//r3-->charhigh	r4-->full pointer r2-->data pointer r1-->data
                            	//--------------------------------------------------
                            	PutChar_small_get_data:
                            			///////
0000BBA3 40 96              			r3=0x00
0000BBA4 0C 99 80 00        			r4=label4
                            			///////
                            	PutChar_small_full_data:		
0000BBA6 41 04              			r2+=0x01
0000BBA7 16 AD 01 00        			sr|=[bank1]
0000BBA9 E2 92              			r1=d:[r2]
0000BBAA 11 43 58 00        			cmp	r1,[constant]
0000BBAC 10 5E              			je	small_get_data_end
0000BBAD 19 D3 57 00        			[chartemp]=r1
0000BBAF 79 93              			r1=r1 lsr 0x04
0000BBB0 79 93              			r1=r1 lsr 0x04
0000BBB1 09 B3 FF 00        			r1&=0x00ff
0000BBB3 C4 D2              			[r4]=r1
0000BBB4 41 08              			r4+=0x01
0000BBB5 11 93 57 00        			r1=[chartemp]
0000BBB7 09 B3 FF 00        			r1&=0x00ff
0000BBB9 C4 D2              			[r4]=r1
0000BBBA 41 08              			r4+=0x01
0000BBBB 41 06              			r3+=0x01
0000BBBC 57 EE              			jmp PutChar_small_full_data
                            	small_get_data_end:	
0000BBBD 1B D7 55 00        			[charhigh]=r3
0000BBBF 1B D7 03 00        			[image_high_bit]=r3		
0000BBC1 90 9A              			retf
                            	//////////////////////////////////////////////////////////////////////////////
                            	//Filename : FG_PutStr
                            	//Function  Description	:print a string at (startx,starty)
                            	//Input    : string,[font][startx][starty]
                            	//the start point is left upside point of string
                            	//mode:		
                            	//	DG_CHAR_COVER	(default)
                            	//	DG_CHAR_CLEAR
                            	//	DG_CHAR_XOR	
                            	//font:
                            	//		tiny(default)
                            	//		small	
                            	//		smallb	
                            	//		large	
                            	//		narrow	
                            	//usage: FG_PutStr("string",short font,short startx,short starty)
                            	//Destory  : R1,R2,R3,R4
                            	//////////////////////////////////////////////////////////////////////////////
                            	.external	str_tab										//字符串起始地址
                            	.external	str_x
                            	.external	str_y
                            	.public	_FG_PutStr
                            	_FG_PutStr:
0000BBC2 88 DA              			PUSH BP,BP TO [SP]
0000BBC3 00 93              			r1=sp
0000BBC4 05 95              			r2=bp
0000BBC5 1A D5 5C 00        			[bp_temp]=r2
0000BBC7 01 25              			r2-=r1
                            	PutStr_two:	
0000BBC8 46 44              			cmp	r2,0x06
0000BBC9 03 4E              			jne	PutStr_four
0000BBCA 40 F0 EE BB        			call	PutStr_parameter_two
0000BBCC 04 EE              			jmp	PutStr
                            	PutStr_four:
0000BBCD 48 44              			cmp	r2,0x08
0000BBCE 02 4E              			jne	PutStr
0000BBCF 40 F0 34 BC        			call	PutStr_parameter_four
                            	PutStr:	
                            	//r2-->data pointer,r1-->data
                            	//		r1=0x70
                            	//		[str_x]=r1
                            	//		r2=_TAB_100
0000BBD1 12 95 59 00        			r2=[str_tab]
                            	PutStr_loop:			
0000BBD3 C2 92              			r1=[r2]
0000BBD4 40 42              			cmp	r1 ,0x00
0000BBD5 16 5E              			je	PutStr_end
0000BBD6 09 43 95 00        			cmp r1,0x95
0000BBD8 04 0E              			jb	PutStr_loop_1
0000BBD9 64 22              			r1-=0x24
0000BBDA 19 D3 53 00        			[charnum]=r1
0000BBDC 03 EE              			jmp	PutStr_loop_2
                            	PutStr_loop_1:		
0000BBDD 5F 22              			r1-=0x1f
0000BBDE 19 D3 53 00        			[charnum]=r1
                            	PutStr_loop_2:	
0000BBE0 88 D4              			push	r2 to [sp]	
0000BBE1 40 F0 CA BA        			call	PutChar
0000BBE3 88 92              			pop	r2 from [sp]
0000BBE4 41 04              			r2+=0x01
0000BBE5 11 93 04 00        			r1=[image_jumpoff_point_x]
0000BBE7 11 23 55 00        			r1-=[charhigh]
0000BBE9 19 D3 04 00        			[image_jumpoff_point_x]=r1
0000BBEB 59 EE              			jmp	PutStr_loop
                            	PutStr_end:
0000BBEC 88 98              			pop bp from	[sp]
0000BBED 90 9A              			retf
                            	//--------------------------------------------------
                            	PutStr_parameter_two:
0000BBEE 11 93 A1 00        			r1=[_x0]
0000BBF0 09 93 60 00        			r1=0x60
0000BBF2 19 D3 04 00        			[image_jumpoff_point_x]=r1
0000BBF4 11 93 A2 00        			r1=[_y0]
0000BBF6 68 92              			r1=40
0000BBF7 19 D3 05 00        			[image_jumpoff_point_y]=r1
0000BBF9 12 95 5C 00        			r2=[bp_temp]
                            	PutStr_Parameters_two_four:		
0000BBFB 13 97 5E 00        			r3=[sign]
0000BBFD 0B B7 FF E0        			r3&=0xe0ff
0000BBFF 1B D7 5E 00        			[sign]=r3
0000BC01 41 24              			r2-=0x01
0000BC02 C2 92              			r1=[r2]
                            	Str_parameter_two_tiny:	
0000BC03 40 42              			cmp	r1,0x00
0000BC04 07 4E              			jne	Str_parameter_two_small
0000BC05 13 97 5E 00        			r3=[sign]
0000BC07 0B A7 00 01        			r3|=0x0100
0000BC09 1B D7 5E 00        			[sign]=r3
0000BC0B 23 EE              			jmp Str_parameter_two_modend
                            	Str_parameter_two_small:
0000BC0C 41 42              			cmp	r1,0x01
0000BC0D 07 4E              			jne	Str_parameter_two_smallb
0000BC0E 13 97 5E 00        			r3=[sign]
0000BC10 0B A7 00 02        			r3|=0x0200
0000BC12 1B D7 5E 00        			[sign]=r3
0000BC14 1A EE              			jmp Str_parameter_two_modend
                            	Str_parameter_two_smallb:
0000BC15 42 42              			cmp	r1,0x02
0000BC16 07 4E              			jne	Str_parameter_two_large
0000BC17 13 97 5E 00        			r3=[sign]
0000BC19 0B A7 00 04        			r3|=0x0400
0000BC1B 1B D7 5E 00        			[sign]=r3
0000BC1D 11 EE              			jmp Str_parameter_two_modend
                            	Str_parameter_two_large:
0000BC1E 43 42              			cmp	r1,0x03
0000BC1F 07 4E              			jne	Str_parameter_two_narrow
0000BC20 13 97 5E 00        			r3=[sign]
0000BC22 0B A7 00 08        			r3|=0x0800
0000BC24 1B D7 5E 00        			[sign]=r3
0000BC26 08 EE              			jmp	Str_parameter_two_modend
                            	Str_parameter_two_narrow:
0000BC27 44 42              			cmp	r1,0x04
0000BC28 06 4E              			jne	Str_parameter_two_modend
0000BC29 13 97 5E 00        			r3=[sign]
0000BC2B 0B A7 00 10        			r3|=0x1000
0000BC2D 1B D7 5E 00        			[sign]=r3
                            	Str_parameter_two_modend:
0000BC2F 41 24              			r2-=0x01
0000BC30 C2 94              			r2=[r2]
0000BC31 1A D5 59 00        			[str_tab]=r2
0000BC33 90 9A              			retf
                            	//--------------------------------------------------
                            	PutStr_parameter_four:
0000BC34 12 95 5C 00        			r2=[bp_temp]
0000BC36 41 24              			r2-=0x01
0000BC37 C2 92              			r1=[r2]
0000BC38 19 D3 05 00        			[image_jumpoff_point_y]=r1
0000BC3A 41 24              			r2-=0x01
0000BC3B C2 92              			r1=[r2]
0000BC3C 19 D3 04 00        			[image_jumpoff_point_x]=r1
0000BC3E 80 FE FB BB        			goto PutStr_Parameters_two_four
                            	//		retf
                            	//--------------------------------------------------
                            	//--------------------------------------------------
                            	//////////////////////////////////////////////////////////////////////////////2
                            	//Filename : FG_GetPixel
                            	//Function  Get the pixel color at (plotX,ploty),and store in r1
                            	//Input    : [plotX][ploty]
                            	//usage: FG_GetPixel(short plotX,short ploty)
                            	//Example:
                            	//		 FG_GetPixel()
                            	//		 FG_GetPixel(10,20)
                            	//Destory  : R1,R2,R3,R4
                            	//////////////////////////////////////////////////////////////////////////////
                            	.public	_FG_GetPixel
                            	_FG_GetPixel:
0000BC40 88 DA              			PUSH BP,BP TO [SP]
0000BC41 00 93              			r1=sp
0000BC42 05 95              			r2=bp
0000BC43 1A D5 5C 00        			[bp_temp]=r2
0000BC45 01 25              			r2-=r1
                            	L_GetPixel_Parameters_none:
0000BC46 44 44              			cmp	r2,0x04
0000BC47 05 4E              			jne	L_GetPixel_Parameters_two
0000BC48 11 93 A1 00        			r1=[_x0]
0000BC4A 12 95 A2 00        			r2=[_y0]
0000BC4C 08 EE              			jmp L_GetPixel_Parameters_end
                            	L_GetPixel_Parameters_two:
0000BC4D 46 44              			cmp	r2,0x06
0000BC4E 06 4E              			jne	L_GetPixel_Parameters_end
0000BC4F 12 95 5C 00        			r2=[bp_temp]
0000BC51 42 24              			r2-=0x02
0000BC52 C2 92              			r1=[r2]
0000BC53 41 04              			r2+=0x01
0000BC54 C2 94              			r2=[r2]
                            	L_GetPixel_Parameters_end:		
0000BC55 40 F0 03 AF        			call	F_Get_pixel
0000BC57 88 98              			pop	bp from [sp]
0000BC58 90 9A              			retf
                            	//////////////////////////////////////////////////////////////////////////////3
                            	//Filename : FG_PutPixel
                            	//Function  draw the pixel with assigned mode or R_GraphicMode
                            	//Input    : [plotX][ploty]
                            	//Mode:
                            	//	DG_PIXEL_COVER	(default)
                            	//	DG_PIXEL_CLEAR	
                            	//	DG_PIXEL_XOR
                            	//usage: FG_PutPixel(short plotX,short ploty,short mode)
                            	//Example:
                            	//		 FG_PutPixel()
                            	//		 FG_PutPixel(10,20,DG_PIXEL_XOR)
                            	//Destory  : R1,R2,R3,R4
                            	//////////////////////////////////////////////////////////////////////////////
                            	.public	_FG_PutPixel
                            	_FG_PutPixel:
0000BC59 88 DA              			PUSH BP,BP TO [SP]
0000BC5A 00 93              			r1=sp
0000BC5B 05 95              			r2=bp
0000BC5C 1A D5 5C 00        			[bp_temp]=r2
0000BC5E 01 25              			r2-=r1
                            	L_PutPixel_Parameters_none:
0000BC5F 44 44              			cmp	r2,0x04
0000BC60 05 4E              			jne	L_PutPixel_Parameters_two
0000BC61 11 93 A1 00        			r1=[_x0]
0000BC63 12 95 A2 00        			r2=[_y0]
0000BC65 15 EE              			jmp L_PutPixel_Parameters_end
                            	L_PutPixel_Parameters_two:
0000BC66 46 44              			cmp	r2,0x06
0000BC67 07 4E              			jne	L_PutPixel_Parameters_three
0000BC68 12 95 5C 00        			r2=[bp_temp]
0000BC6A 42 24              			r2-=0x02
0000BC6B C2 92              			r1=[r2]
0000BC6C 41 04              			r2+=0x01
0000BC6D C2 94              			r2=[r2]
0000BC6E 0C EE              			jmp L_PutPixel_Parameters_end
                            	L_PutPixel_Parameters_three:
0000BC6F 47 44              			cmp	r2,0x07
0000BC70 0A 4E              			jne	L_PutPixel_Parameters_end
0000BC71 12 95 5C 00        			r2=[bp_temp]
0000BC73 41 24              			r2-=0x01
0000BC74 C2 92              			r1=[r2]
0000BC75 40 F0 EA B0        			call	FG_SetMode
0000BC77 42 24              			r2-=0x02
0000BC78 C2 92              			r1=[r2]
0000BC79 41 04              			r2+=0x01
0000BC7A C2 94              			r2=[r2]
                            	L_PutPixel_Parameters_end:
0000BC7B 13 97 5E 00        			r3=[sign]
0000BC7D 41 A6              			r3|=0x01
0000BC7E 1B D7 5E 00        			[sign]=r3		
0000BC80 40 F0 D3 AE        			call	F_pixel
0000BC82 88 98              			pop	bp from [sp]	
0000BC83 90 9A              			retf
                            	//////////////////////////////////////////////////////////////////////////////9
                            	//Filename :FG_GetY  FG_GetX
                            	//参数:
                            	//功能: Get current (X0,Y0) and store in r1.
                            	//用法:	FG_GetX()	FG_GetY()
                            	//////////////////////////////////////////////////////////////////////////////
                            	.public	_FG_GetY
                            	_FG_GetY:
0000BC84 11 93 A2 00        			r1=[_y0]
0000BC86 90 9A              			retf
                            	.public	_FG_GetX
                            	_FG_GetX:
0000BC87 11 93 A1 00        			r1=[_x0]
0000BC89 90 9A              			retf
                            	//////////////////////////////////////////////////////////////////////////////5
                            	//Filename :_FG_GetCharHeight
                            	//参数: Char,Font
                            	//功能: Get the height of char(pixels), store in A.
                            	//用法: 	FG_GetCharHeight(char Char,short Font)
                            	//Example:  FG_GetCharHeight('a',Large)
                            	//////////////////////////////////////////////////////////////////////////////
                            	
                            	.public	_FG_GetCharHeight
                            	_FG_GetCharHeight:
0000BC8A 88 DA              			PUSH BP,BP TO [SP]
0000BC8B 00 93              			r1=sp
0000BC8C 05 95              			r2=bp
0000BC8D 1A D5 5C 00        			[bp_temp]=r2
0000BC8F 01 25              			r2-=r1
                            	L_CharHeight_Parameters_two:
0000BC90 46 44              			cmp	r2,0x06
0000BC91 11 4E              			jne	L_CharHeight_end
0000BC92 12 95 5C 00        			r2=[bp_temp]
0000BC94 41 24              			r2-=0x01
0000BC95 C2 92              			r1=[r2]
0000BC96 40 42              			cmp r1 ,0x00
0000BC97 02 4E              			jne L_CharHeight_large
0000BC98 48 92              			r1=0x08
0000BC99 09 EE              			jmp	L_CharHeight_end
                            	L_CharHeight_large:
0000BC9A 42 42              			cmp r1 ,0x02
0000BC9B 02 9E              			ja L_CharHeight_other
0000BC9C 4A 92              			r1=0x0a	
0000BC9D 05 EE              			jmp	L_CharHeight_end
                            	L_CharHeight_other:
0000BC9E 43 42              			cmp r1 ,0x03
0000BC9F 02 4E              			jne L_CharHeight_other1
0000BCA0 4D 92              			r1=0x0d
0000BCA1 01 EE              			jmp	L_CharHeight_end
                            	L_CharHeight_other1:	
0000BCA2 4A 92              			r1=0x0a	
                            	L_CharHeight_end:
0000BCA3 88 98              			pop bp from [sp]
0000BCA4 90 9A              			retf
                            	//////////////////////////////////////////////////////////////////////////////6
                            	//Filename :_FG_GetCharWidth
                            	//参数: Char,Font
                            	//功能: Get the width of char(pixels), store in r1.
                            	//用法: 	FG_GetCharWidth(char Char,short Font)
                            	//Example:  FG_GetCharWidth('A',Tiny)
                            	//////////////////////////////////////////////////////////////////////////////
                            	.public	_FG_GetCharWidth
                            	_FG_GetCharWidth:
0000BCA5 98 D8              			push r2,r4 to [sp]
0000BCA6 88 DA              			PUSH BP,BP TO [SP]
0000BCA7 11 93 5E 00        			r1=[sign]
0000BCA9 44 A2              			r1|=0x04
0000BCAA 19 D3 5E 00        			[sign]=r1
0000BCAC 00 93              			r1=sp
0000BCAD 05 95              			r2=bp
0000BCAE 1A D5 5C 00        			[bp_temp]=r2
0000BCB0 01 25              			r2-=r1
                            	L_GetChar_Parameters_two:
0000BCB1 49 44              			cmp	r2,0x09
0000BCB2 04 4E              			jne	L_GetChar_end
0000BCB3 40 F0 C2 BC        			call	F_CharWidth_Parameters_two
0000BCB5 40 F0 CA BA        			call	PutChar
                            	L_GetChar_end:
0000BCB7 11 93 5E 00        			r1=[sign]
0000BCB9 09 B3 FB FF        			r1&=0xfffb
0000BCBB 19 D3 5E 00        			[sign]=r1
0000BCBD 11 93 55 00        			r1=[charhigh]
0000BCBF 88 98              			pop bp from [sp]
0000BCC0 98 92              			pop r2,r4 from [sp]
0000BCC1 90 9A              			retf
                            		
                            	F_CharWidth_Parameters_two:
0000BCC2 12 95 5C 00        			r2=[bp_temp]
                            	F_CharWidth_Parameters_two_four:		
0000BCC4 13 97 5E 00        			r3=[sign]
0000BCC6 0B B7 FF E0        			r3&=0xe0ff
0000BCC8 1B D7 5E 00        			[sign]=r3
0000BCCA 41 24              			r2-=0x01
0000BCCB C2 92              			r1=[r2]
                            	CharWidth_parameter_two_tiny:	
0000BCCC 40 42              			cmp	r1,0x00
0000BCCD 07 4E              			jne	CharWidth_parameter_two_small
0000BCCE 13 97 5E 00        			r3=[sign]
0000BCD0 0B A7 00 01        			r3|=0x0100
0000BCD2 1B D7 5E 00        			[sign]=r3
0000BCD4 23 EE              			jmp CharWidth_parameter_two_modend
                            	CharWidth_parameter_two_small:
0000BCD5 41 42              			cmp	r1,0x01
0000BCD6 07 4E              			jne	CharWidth_parameter_two_smallb
0000BCD7 13 97 5E 00        			r3=[sign]
0000BCD9 0B A7 00 02        			r3|=0x0200
0000BCDB 1B D7 5E 00        			[sign]=r3
0000BCDD 1A EE              			jmp CharWidth_parameter_two_modend
                            	CharWidth_parameter_two_smallb:
0000BCDE 42 42              			cmp	r1,0x02
0000BCDF 07 4E              			jne	CharWidth_parameter_two_large
0000BCE0 13 97 5E 00        			r3=[sign]
0000BCE2 0B A7 00 04        			r3|=0x0400
0000BCE4 1B D7 5E 00        			[sign]=r3
0000BCE6 11 EE              			jmp CharWidth_parameter_two_modend
                            	CharWidth_parameter_two_large:
0000BCE7 43 42              			cmp	r1,0x03
0000BCE8 07 4E              			jne	CharWidth_parameter_two_narrow
0000BCE9 13 97 5E 00        			r3=[sign]
0000BCEB 0B A7 00 08        			r3|=0x0800
0000BCED 1B D7 5E 00        			[sign]=r3
0000BCEF 08 EE              			jmp	CharWidth_parameter_two_modend
                            	CharWidth_parameter_two_narrow:
0000BCF0 44 42              			cmp	r1,0x04
0000BCF1 06 4E              			jne	CharWidth_parameter_two_modend
0000BCF2 13 97 5E 00        			r3=[sign]
0000BCF4 0B A7 00 10        			r3|=0x1000
0000BCF6 1B D7 5E 00        			[sign]=r3
                            	CharWidth_parameter_two_modend:
0000BCF8 41 24              			r2-=0x01
0000BCF9 C2 92              			r1=[r2]
0000BCFA 09 43 95 00        			cmp r1,0x95
0000BCFC 03 0E              			jb	CharWidth_parameter_two_loop_1
0000BCFD 64 22              			r1-=0x24
0000BCFE 19 D3 53 00        			[charnum]=r1
                            	CharWidth_parameter_two_loop_1:		
0000BD00 5F 22              			r1-=0x1f
0000BD01 19 D3 53 00        			[charnum]=r1
0000BD03 90 9A              			retf
                            	//////////////////////////////////////////////////////////////////////////////4
                            	////Filename :FG_GetStrWidth
                            	//参数: StrPtr,Font
                            	//功能: Get the width of string(pixels), store in r1.
                            	//用法:	FG_GetStrWidth(char *StrPtr,short Font)
                            	//Example:	FG_GetStrWidth(StringPointer,Tiny)
                            	//////////////////////////////////////////////////////////////////////////////
                            	.public	_FG_GetStrWidth
                            	_FG_GetStrWidth:
0000BD04 A0 DA              			push r2,r5 to [sp]
0000BD05 11 93 5E 00        			r1=[sign]
0000BD07 44 A2              			r1|=0x04
0000BD08 19 D3 5E 00        			[sign]=r1
0000BD0A 00 93              			r1=sp
0000BD0B 05 95              			r2=bp
0000BD0C 1A D5 5C 00        			[bp_temp]=r2
0000BD0E 01 25              			r2-=r1
                            	L_GetCharWidth_Parameters_two:
0000BD0F 49 44              			cmp	r2,0x09
0000BD10 19 4E              			jne	L_GetCharWidth_end		
0000BD11 40 F0 33 BD        			call	StrWidth_parameter_two
0000BD13 40 96              			r3=0x00
                            	GetCharWidth_loop:					
0000BD14 C2 92              			r1=[r2]
0000BD15 40 42              			cmp	r1 ,0x00
0000BD16 13 5E              			je	L_GetCharWidth_end
0000BD17 09 43 95 00        			cmp r1,0x95
0000BD19 04 0E              			jb	GetCharWidth_loop_1
0000BD1A 64 22              			r1-=0x24
0000BD1B 19 D3 53 00        			[charnum]=r1
0000BD1D 03 EE              			jmp	GetCharWidth_loop_2
                            	GetCharWidth_loop_1:		
0000BD1E 5F 22              			r1-=0x1f
0000BD1F 19 D3 53 00        			[charnum]=r1
                            	GetCharWidth_loop_2:	
0000BD21 90 D6              			push r2,r3 to [sp]	
0000BD22 40 F0 CA BA        			call	PutChar
0000BD24 90 92              			pop	r2,r3 from [sp]
0000BD25 41 04              			r2+=0x01
0000BD26 11 93 55 00        			r1=[charhigh]
0000BD28 01 07              			r3+=r1
0000BD29 56 EE              			jmp	GetCharWidth_loop		
                            	L_GetCharWidth_end:
0000BD2A 11 93 5E 00        			r1=[sign]
0000BD2C 09 B3 FB FF        			r1&=0xfffb
0000BD2E 19 D3 5E 00        			[sign]=r1
0000BD30 03 93              			r1=r3
0000BD31 A0 92              			pop r2,r5 from [sp]
0000BD32 90 9A              			retf
                            	//------------------------------------------------------------------	
                            	StrWidth_parameter_two:
0000BD33 12 95 5C 00        			r2=[bp_temp]
                            	StrWidth_Parameters_two_four:		
0000BD35 13 97 5E 00        			r3=[sign]
0000BD37 0B B7 FF E0        			r3&=0xe0ff
0000BD39 1B D7 5E 00        			[sign]=r3
0000BD3B 41 24              			r2-=0x01
0000BD3C C2 92              			r1=[r2]
                            	StrWidth_parameter_two_tiny:	
0000BD3D 40 42              			cmp	r1,0x00
0000BD3E 07 4E              			jne	StrWidth_parameter_two_small
0000BD3F 13 97 5E 00        			r3=[sign]
0000BD41 0B A7 00 01        			r3|=0x0100
0000BD43 1B D7 5E 00        			[sign]=r3
0000BD45 23 EE              			jmp StrWidth_parameter_two_modend
                            	StrWidth_parameter_two_small:
0000BD46 41 42              			cmp	r1,0x01
0000BD47 07 4E              			jne	StrWidth_parameter_two_smallb
0000BD48 13 97 5E 00        			r3=[sign]
0000BD4A 0B A7 00 02        			r3|=0x0200
0000BD4C 1B D7 5E 00        			[sign]=r3
0000BD4E 1A EE              			jmp StrWidth_parameter_two_modend
                            	StrWidth_parameter_two_smallb:
0000BD4F 42 42              			cmp	r1,0x02
0000BD50 07 4E              			jne	StrWidth_parameter_two_large
0000BD51 13 97 5E 00        			r3=[sign]
0000BD53 0B A7 00 04        			r3|=0x0400
0000BD55 1B D7 5E 00        			[sign]=r3
0000BD57 11 EE              			jmp StrWidth_parameter_two_modend
                            	StrWidth_parameter_two_large:
0000BD58 43 42              			cmp	r1,0x03
0000BD59 07 4E              			jne	StrWidth_parameter_two_narrow
0000BD5A 13 97 5E 00        			r3=[sign]
0000BD5C 0B A7 00 08        			r3|=0x0800
0000BD5E 1B D7 5E 00        			[sign]=r3
0000BD60 08 EE              			jmp	StrWidth_parameter_two_modend
                            	StrWidth_parameter_two_narrow:
0000BD61 44 42              			cmp	r1,0x04
0000BD62 06 4E              			jne	StrWidth_parameter_two_modend
0000BD63 13 97 5E 00        			r3=[sign]
0000BD65 0B A7 00 10        			r3|=0x1000
0000BD67 1B D7 5E 00        			[sign]=r3
                            	StrWidth_parameter_two_modend:
0000BD69 41 24              			r2-=0x01
0000BD6A C2 94              			r2=[r2]
0000BD6B 1A D5 59 00        			[str_tab]=r2
0000BD6D 90 9A              			retf
                            	//////////////////////////////////////////////////////////////////////////////10
                            	//Filename :_FG_MoveDelta
                            	//参数: DeltaX,DeltaY
                            	//功能: Mover (X0,Y0) to a new location. New X0=X0+DeltaX.
                            	//Destroy: A
                            	//Memory Modified: X0->X0+DeltaX, Y0->Y0+DeltaY
                            	//用法:		FG_MoveDelta(short DeltaX,short DeltaY)
                            	//Example:	FG_MoveDelta(10,10)
                            	//////////////////////////////////////////////////////////////////////////////
                            	.public	_FG_MoveDelta
                            	_FG_MoveDelta:
0000BD6E 88 DA              			push bp to [sp]
0000BD6F 00 93              			r1=sp
0000BD70 05 95              			r2=bp
0000BD71 1A D5 5C 00        			[bp_temp]=r2
0000BD73 01 25              			r2-=r1
                            	L_MoveDelta_Parameters_two:
0000BD74 46 44              			cmp	r2,0x06
0000BD75 0E 4E              			jne	L_MoveDelta_end
0000BD76 12 95 5C 00        			r2=[bp_temp]
0000BD78 41 24              			r2-=0x01
0000BD79 11 93 A2 00        			r1=[_y0]
0000BD7B C2 02              			r1+=[r2]
0000BD7C 19 D3 A2 00        			[_y0]=r1
0000BD7E 41 24              			r2-=0x01
0000BD7F 11 93 A1 00        			r1=[_x0]
0000BD81 C2 02              			r1+=[r2]
0000BD82 19 D3 A1 00        			[_x0]=r1
                            	L_MoveDelta_end:
0000BD84 88 98              			pop bp from [sp]
0000BD85 90 9A              			retf
                            	//////////////////////////////////////////////////////////////////////////////11
                            	//Filename :_FG_MoveTo
                            	//参数: NewX,NewY
                            	//功能: Move (X0,Y0) to a new location.
                            	//Destroy: AMemory Modified: X0->NewX, Y0->NewY
                            	//用法: 	FG_MoveTo(short NewX,short NewY)
                            	//Example:	FG_MoveTo(20,30)	
                            	//FG_MoveTo(R_Var1,R_Var2)
                            	//////////////////////////////////////////////////////////////////////////////
                            	.public	_FG_MoveTo
                            	_FG_MoveTo:
0000BD86 88 DA              			push bp to [sp]
0000BD87 00 93              			r1=sp
0000BD88 05 95              			r2=bp
0000BD89 1A D5 5C 00        			[bp_temp]=r2
0000BD8B 01 25              			r2-=r1
                            	L_MoveTo_Parameters_two:
0000BD8C 46 44              			cmp	r2,0x06
0000BD8D 0A 4E              			jne	L_MoveTo_end
0000BD8E 12 95 5C 00        			r2=[bp_temp]
0000BD90 41 24              			r2-=0x01
0000BD91 C2 92              			r1=[r2]
0000BD92 19 D3 A2 00        			[_y0]=r1
0000BD94 41 24              			r2-=0x01
0000BD95 C2 92              			r1=[r2]
0000BD96 19 D3 A1 00        			[_x0]=r1
                            	L_MoveTo_end:
0000BD98 88 98              			pop bp from [sp]
0000BD99 90 9A              			retf
                            	//////////////////////////////////////////////////////////////////////////////12
                            	//Filename : _FG_Bar
                            	//参数: StartX,StartY,EndX,EndY,Mode
                            	//功能: Draw a bar with the style assigned in R_GraphicMode.
                            	//Mode: DG_BAR_FILL(default),DG_BAR_ERASE,DG_BAR_INVERSE
                            	//Destroy: AMemory Modified: X0->EndX, Y0->EndY
                            	//用法: 	FG_Bar(short StartX,short StartY,short EndX,short EndY,short Mode)
                            	//Example:		FG_Bar(0,0,20,20,DG_BAR_FILL)	
                            	//				FG_Bar(0,0,R_Var1,R_Var2)
                            	//				FG_Bar(20,20,DG_BAR_ERASE)
                            	//				FG_Bar(R_Var1,R_Var2)
                            	//////////////////////////////////////////////////////////////////////////////
                            	.public	_FG_Bar
                            	_FG_Bar:
0000BD9A 88 DA              			PUSH BP,BP TO [SP]
0000BD9B 00 93              			r1=sp
0000BD9C 05 95              			r2=bp
0000BD9D 1A D5 5C 00        			[bp_temp]=r2
0000BD9F 01 25              			r2-=r1
                            	PutBar_two:	
0000BDA0 46 44              			cmp	r2,0x06
0000BDA1 03 4E              			jne	PutBar_three
0000BDA2 40 F0 BE BD        			call	PutBar_parameter_two
0000BDA4 0E EE              			jmp	PutBar
                            	PutBar_three:	
0000BDA5 47 44              			cmp	r2,0x07
0000BDA6 03 4E              			jne	PutBar_four
0000BDA7 40 F0 E6 BD        			call	PutBar_parameter_three
0000BDA9 09 EE              			jmp	PutBar
                            	PutBar_four:
0000BDAA 48 44              			cmp	r2,0x08
0000BDAB 03 4E              			jne	PutBar_five
0000BDAC 40 F0 1D BE        			call	PutBar_parameter_four
0000BDAE 04 EE              			jmp	PutBar
                            	PutBar_five:	
0000BDAF 49 44              			cmp	r2,0x09
0000BDB0 02 4E              			jne	PutBar
0000BDB1 40 F0 47 BE        			call	PutBar_parameter_five
                            	PutBar:	
0000BDB3 40 F0 B7 BD        			call	FG_putBar
0000BDB5 88 98              			pop bp from [sp]	
0000BDB6 90 9A              			retf
                            	//-----------------------------------------------------
                            	
                            	FG_putBar:	
0000BDB7 88 D4              			push r2 to [sp]
0000BDB8 40 F0 24 B6        			call	rectagle			//_rectagle1
0000BDBA 88 92              			pop r2 from [sp]
0000BDBB 1A D5 5D 00        			[R_GraphicMode_temp]=r2
0000BDBD 90 9A              			retf
                            	//-----------------------------------------------------
                            	PutBar_parameter_two:
0000BDBE 12 95 5C 00        			r2=[bp_temp]
0000BDC0 41 24              			r2-=0x01
0000BDC1 C2 92              			r1=[r2]
0000BDC2 19 D3 1A 00        			[_rectangle_high]=r1
0000BDC4 41 24              			r2-=0x01
0000BDC5 C2 92              			r1=[r2]
0000BDC6 19 D3 1B 00        			[_rectangle_wide]=r1
0000BDC8 11 93 A2 00        			r1=[_y0]
0000BDCA 19 D3 19 00        			[_rectangle_jumping_off_y]=r1
0000BDCC 11 93 A1 00        			r1=[_x0]
0000BDCE 19 D3 18 00        			[_rectangle_jumping_off_x]=r1
0000BDD0 11 93 1B 00        			r1=[_rectangle_wide]
0000BDD2 11 23 18 00        			r1-=[_rectangle_jumping_off_x]
0000BDD4 19 D3 1B 00        			[_rectangle_wide]=r1
0000BDD6 11 93 1A 00        			r1=[_rectangle_high]
0000BDD8 11 23 19 00        			r1-=[_rectangle_jumping_off_y]
0000BDDA 19 D3 1A 00        			[_rectangle_high]=r1
0000BDDC 11 93 5D 00        			r1=[R_GraphicMode_temp]
0000BDDE 12 95 5D 00        			r2=[R_GraphicMode_temp]
0000BDE0 09 B3 C7 FF        			r1&=line_mode_bit_clear
0000BDE2 48 A2              			r1|=0x0008
0000BDE3 19 D3 5D 00        			[R_GraphicMode_temp]=r1
0000BDE5 90 9A              			retf
                            	//-----------------------------------------------------
                            	PutBar_parameter_three:
0000BDE6 12 95 5C 00        			r2=[bp_temp]
0000BDE8 42 24              			r2-=0x02
0000BDE9 C2 92              			r1=[r2]
0000BDEA 19 D3 1A 00        			[_rectangle_high]=r1
0000BDEC 41 24              			r2-=0x01
0000BDED C2 92              			r1=[r2]
0000BDEE 19 D3 1B 00        			[_rectangle_wide]=r1
0000BDF0 11 93 A2 00        			r1=[_y0]
0000BDF2 19 D3 19 00        			[_rectangle_jumping_off_y]=r1
0000BDF4 11 93 A1 00        			r1=[_x0]
0000BDF6 19 D3 18 00        			[_rectangle_jumping_off_x]=r1
0000BDF8 11 93 1B 00        			r1=[_rectangle_wide]
0000BDFA 11 23 18 00        			r1-=[_rectangle_jumping_off_x]
0000BDFC 19 D3 1B 00        			[_rectangle_wide]=r1
0000BDFE 11 93 1A 00        			r1=[_rectangle_high]
0000BE00 11 23 19 00        			r1-=[_rectangle_jumping_off_y]
0000BE02 19 D3 1A 00        			[_rectangle_high]=r1
0000BE04 12 95 5C 00        			r2=[bp_temp]
0000BE06 41 24              			r2-=0x01
0000BE07 C2 92              			r1=[r2]
0000BE08 40 42              			cmp r1,0x00
0000BE09 0A 4E              			jne PutBar_parameter_three_1
0000BE0A 11 93 5D 00        			r1=[R_GraphicMode_temp]
0000BE0C 12 95 5D 00        			r2=[R_GraphicMode_temp]
0000BE0E 09 B3 C7 FF        			r1&=line_mode_bit_clear
0000BE10 48 A2              			r1|=0x0008
0000BE11 19 D3 5D 00        			[R_GraphicMode_temp]=r1
0000BE13 08 EE              			jmp PutBar_parameter_three_end
                            	PutBar_parameter_three_1:
0000BE14 11 93 5D 00        			r1=[R_GraphicMode_temp]
0000BE16 12 95 5D 00        			r2=[R_GraphicMode_temp]
0000BE18 09 B3 C7 FF        			r1&=line_mode_bit_clear
0000BE1A 19 D3 5D 00        			[R_GraphicMode_temp]=r1
                            	PutBar_parameter_three_end:
0000BE1C 90 9A              			retf
                            	//-----------------------------------------------------
                            	PutBar_parameter_four:
0000BE1D 40 F0 30 B0        			call	_FG_GetBMPMode
0000BE1F 12 95 5C 00        			r2=[bp_temp]
0000BE21 41 24              			r2-=0x01
0000BE22 C2 92              			r1=[r2]
0000BE23 19 D3 1A 00        			[_rectangle_high]=r1
0000BE25 41 24              			r2-=0x01
0000BE26 C2 92              			r1=[r2]
0000BE27 19 D3 1B 00        			[_rectangle_wide]=r1
0000BE29 41 24              			r2-=0x01
0000BE2A C2 92              			r1=[r2]
0000BE2B 19 D3 19 00        			[_rectangle_jumping_off_y]=r1
0000BE2D 41 24              			r2-=0x01
0000BE2E C2 92              			r1=[r2]
0000BE2F 19 D3 18 00        			[_rectangle_jumping_off_x]=r1
0000BE31 11 93 1B 00        			r1=[_rectangle_wide]
0000BE33 11 23 18 00        			r1-=[_rectangle_jumping_off_x]
0000BE35 19 D3 1B 00        			[_rectangle_wide]=r1
0000BE37 11 93 1A 00        			r1=[_rectangle_high]
0000BE39 11 23 19 00        			r1-=[_rectangle_jumping_off_y]
0000BE3B 19 D3 1A 00        			[_rectangle_high]=r1
0000BE3D 11 93 5D 00        			r1=[R_GraphicMode_temp]
0000BE3F 12 95 5D 00        			r2=[R_GraphicMode_temp]
0000BE41 09 B3 C7 FF        			r1&=line_mode_bit_clear
0000BE43 48 A2              			r1|=0x0008
0000BE44 19 D3 5D 00        			[R_GraphicMode_temp]=r1
0000BE46 90 9A              			retf
                            	//-----------------------------------------------------
                            	PutBar_parameter_five:
0000BE47 12 95 5C 00        			r2=[bp_temp]
0000BE49 42 24              			r2-=0x02
0000BE4A C2 92              			r1=[r2]
0000BE4B 19 D3 1A 00        			[_rectangle_high]=r1
0000BE4D 41 24              			r2-=0x01
0000BE4E C2 92              			r1=[r2]
0000BE4F 19 D3 1B 00        			[_rectangle_wide]=r1
0000BE51 41 24              			r2-=0x01
0000BE52 C2 92              			r1=[r2]
0000BE53 19 D3 19 00        			[_rectangle_jumping_off_y]=r1
0000BE55 41 24              			r2-=0x01
0000BE56 C2 92              			r1=[r2]
0000BE57 19 D3 18 00        			[_rectangle_jumping_off_x]=r1
0000BE59 11 93 1B 00        			r1=[_rectangle_wide]
0000BE5B 11 23 18 00        			r1-=[_rectangle_jumping_off_x]
0000BE5D 19 D3 1B 00        			[_rectangle_wide]=r1
0000BE5F 11 93 1A 00        			r1=[_rectangle_high]
0000BE61 11 23 19 00        			r1-=[_rectangle_jumping_off_y]
0000BE63 19 D3 1A 00        			[_rectangle_high]=r1
0000BE65 12 95 5C 00        			r2=[bp_temp]
0000BE67 41 24              			r2-=0x01
0000BE68 C2 92              			r1=[r2]
0000BE69 40 42              			cmp r1,0x00
0000BE6A 0A 4E              			jne PutBar_parameter_five_1
0000BE6B 11 93 5D 00        			r1=[R_GraphicMode_temp]
0000BE6D 12 95 5D 00        			r2=[R_GraphicMode_temp]
0000BE6F 09 B3 C7 FF        			r1&=line_mode_bit_clear
0000BE71 48 A2              			r1|=0x0008
0000BE72 19 D3 5D 00        			[R_GraphicMode_temp]=r1
0000BE74 08 EE              			jmp PutBar_parameter_five_end
                            	PutBar_parameter_five_1:
0000BE75 11 93 5D 00        			r1=[R_GraphicMode_temp]
0000BE77 12 95 5D 00        			r2=[R_GraphicMode_temp]
0000BE79 09 B3 C7 FF        			r1&=line_mode_bit_clear
0000BE7B 19 D3 5D 00        			[R_GraphicMode_temp]=r1
                            	PutBar_parameter_five_end:
0000BE7D 90 9A              			retf
                            	//-----------------------------------------------------
                            	///////////////////////////////////////////////////////////////////
                            	//Function Name: FG_ClearRect
                            	//参数: _rectangle_jumping_off_y,_rectangle_jumping_off_y,EndX,EndY,Mode
                            	//功能: Clear a rectangular area with 0 or 1.
                            	//Mode: DG_CLEAR_ERASE(default),DG_CLEAR_FILL
                            	//the jump off point must is left downside point of rectangle.the end point must is
                            	//right upside of rectangle 
                            	//FG_ClearRect(short StartX,short StartY,short EndX,short EndY,short Mode)
                            	//Example:	
                            	//FG_ClearRect(0,0,20,20,DG_CLEAR_FILL)	
                            	//FG_ClearRect(0,0,R_Var1,R_Var2)	
                            	//FG_ClearRect(20,20,DG_CLEAR_ERASE)	
                            	//FG_ClearRect(R_Var1,R_Var2)
                            	///////////////////////////////////////////////////////////////////
                            	.public	_FG_ClearRect
                            	_FG_ClearRect:
0000BE7E 88 DA              			PUSH BP,BP TO [SP]
0000BE7F 00 93              			r1=sp
0000BE80 05 95              			r2=bp
0000BE81 1A D5 5C 00        			[bp_temp]=r2
0000BE83 01 25              			r2-=r1
                            	ClearRect_two:	
0000BE84 46 44              			cmp	r2,0x06
0000BE85 03 4E              			jne	ClearRect_three
0000BE86 40 F0 A2 BE        			call	ClearRect_parameter_two
0000BE88 0E EE              			jmp	ClearRect
                            	ClearRect_three:	
0000BE89 47 44              			cmp	r2,0x07
0000BE8A 03 4E              			jne	ClearRect_four
0000BE8B 40 F0 CA BE        			call	ClearRect_parameter_three
0000BE8D 09 EE              			jmp	ClearRect
                            	ClearRect_four:
0000BE8E 48 44              			cmp	r2,0x08
0000BE8F 03 4E              			jne	ClearRect_five
0000BE90 40 F0 01 BF        			call	ClearRect_parameter_four
0000BE92 04 EE              			jmp	ClearRect
                            	ClearRect_five:	
0000BE93 49 44              			cmp	r2,0x09
0000BE94 02 4E              			jne	ClearRect
0000BE95 40 F0 29 BF        			call	ClearRect_parameter_five
                            	ClearRect:	
0000BE97 40 F0 9B BE        			call	FG_ClearRect
0000BE99 88 98              			pop bp from [sp]	
0000BE9A 90 9A              			retf
                            	//-----------------------------------------------------
                            	FG_ClearRect:	
0000BE9B 88 D4              			push r2 to [sp]
0000BE9C 40 F0 24 B6        			call	rectagle		//_rectagle1
0000BE9E 88 92              			pop r2 from [sp]
0000BE9F 1A D5 5D 00        			[R_GraphicMode_temp]=r2
0000BEA1 90 9A              			retf
                            	//-----------------------------------------------------
                            	ClearRect_parameter_two:
0000BEA2 12 95 5C 00        			r2=[bp_temp]
0000BEA4 41 24              			r2-=0x01
0000BEA5 C2 92              			r1=[r2]
0000BEA6 19 D3 1A 00        			[_rectangle_high]=r1
0000BEA8 41 24              			r2-=0x01
0000BEA9 C2 92              			r1=[r2]
0000BEAA 19 D3 1B 00        			[_rectangle_wide]=r1
0000BEAC 11 93 A2 00        			r1=[_y0]
0000BEAE 19 D3 19 00        			[_rectangle_jumping_off_y]=r1
0000BEB0 11 93 A1 00        			r1=[_x0]
0000BEB2 19 D3 18 00        			[_rectangle_jumping_off_x]=r1
0000BEB4 11 93 1B 00        			r1=[_rectangle_wide]
0000BEB6 11 23 18 00        			r1-=[_rectangle_jumping_off_x]
0000BEB8 19 D3 1B 00        			[_rectangle_wide]=r1
0000BEBA 11 93 1A 00        			r1=[_rectangle_high]
0000BEBC 11 23 19 00        			r1-=[_rectangle_jumping_off_y]
0000BEBE 19 D3 1A 00        			[_rectangle_high]=r1
0000BEC0 11 93 5D 00        			r1=[R_GraphicMode_temp]
0000BEC2 12 95 5D 00        			r2=[R_GraphicMode_temp]
0000BEC4 09 B3 C7 FF        			r1&=line_mode_bit_clear
0000BEC6 48 A2              			r1|=0x0008
0000BEC7 19 D3 5D 00        			[R_GraphicMode_temp]=r1
0000BEC9 90 9A              			retf
                            	//-----------------------------------------------------
                            	ClearRect_parameter_three:
0000BECA 12 95 5C 00        			r2=[bp_temp]
0000BECC 42 24              			r2-=0x02
0000BECD C2 92              			r1=[r2]
0000BECE 19 D3 1A 00        			[_rectangle_high]=r1
0000BED0 41 24              			r2-=0x01
0000BED1 C2 92              			r1=[r2]
0000BED2 19 D3 1B 00        			[_rectangle_wide]=r1
0000BED4 11 93 A2 00        			r1=[_y0]
0000BED6 19 D3 19 00        			[_rectangle_jumping_off_y]=r1
0000BED8 11 93 A1 00        			r1=[_x0]
0000BEDA 19 D3 18 00        			[_rectangle_jumping_off_x]=r1
0000BEDC 11 93 1B 00        			r1=[_rectangle_wide]
0000BEDE 11 23 18 00        			r1-=[_rectangle_jumping_off_x]
0000BEE0 19 D3 1B 00        			[_rectangle_wide]=r1
0000BEE2 11 93 1A 00        			r1=[_rectangle_high]
0000BEE4 11 23 19 00        			r1-=[_rectangle_jumping_off_y]
0000BEE6 19 D3 1A 00        			[_rectangle_high]=r1
0000BEE8 12 95 5C 00        			r2=[bp_temp]
0000BEEA 41 24              			r2-=0x01
0000BEEB C2 92              			r1=[r2]
0000BEEC 40 42              			cmp r1,0x00
0000BEED 0A 4E              			jne ClearRect_parameter_three_1
0000BEEE 11 93 5D 00        			r1=[R_GraphicMode_temp]
0000BEF0 12 95 5D 00        			r2=[R_GraphicMode_temp]
0000BEF2 09 B3 C7 FF        			r1&=line_mode_bit_clear
0000BEF4 48 A2              			r1|=0x0008
0000BEF5 19 D3 5D 00        			[R_GraphicMode_temp]=r1
0000BEF7 08 EE              			jmp ClearRect_parameter_three_end
                            	ClearRect_parameter_three_1:
0000BEF8 11 93 5D 00        			r1=[R_GraphicMode_temp]
0000BEFA 12 95 5D 00        			r2=[R_GraphicMode_temp]
0000BEFC 09 B3 C7 FF        			r1&=line_mode_bit_clear
0000BEFE 19 D3 5D 00        			[R_GraphicMode_temp]=r1
                            	ClearRect_parameter_three_end:
0000BF00 90 9A              			retf
                            	//-----------------------------------------------------
                            	ClearRect_parameter_four:
0000BF01 12 95 5C 00        			r2=[bp_temp]
0000BF03 41 24              			r2-=0x01
0000BF04 C2 92              			r1=[r2]
0000BF05 19 D3 1A 00        			[_rectangle_high]=r1
0000BF07 41 24              			r2-=0x01
0000BF08 C2 92              			r1=[r2]
0000BF09 19 D3 1B 00        			[_rectangle_wide]=r1
0000BF0B 41 24              			r2-=0x01
0000BF0C C2 92              			r1=[r2]
0000BF0D 19 D3 19 00        			[_rectangle_jumping_off_y]=r1
0000BF0F 41 24              			r2-=0x01
0000BF10 C2 92              			r1=[r2]
0000BF11 19 D3 18 00        			[_rectangle_jumping_off_x]=r1
0000BF13 11 93 1B 00        			r1=[_rectangle_wide]
0000BF15 11 23 18 00        			r1-=[_rectangle_jumping_off_x]
0000BF17 19 D3 1B 00        			[_rectangle_wide]=r1
0000BF19 11 93 1A 00        			r1=[_rectangle_high]
0000BF1B 11 23 19 00        			r1-=[_rectangle_jumping_off_y]
0000BF1D 19 D3 1A 00        			[_rectangle_high]=r1
0000BF1F 11 93 5D 00        			r1=[R_GraphicMode_temp]
0000BF21 12 95 5D 00        			r2=[R_GraphicMode_temp]
0000BF23 09 B3 C7 FF        			r1&=line_mode_bit_clear
0000BF25 48 A2              			r1|=0x0008
0000BF26 19 D3 5D 00        			[R_GraphicMode_temp]=r1
0000BF28 90 9A              			retf
                            	//-----------------------------------------------------
                            	ClearRect_parameter_five:
0000BF29 12 95 5C 00        			r2=[bp_temp]
0000BF2B 42 24              			r2-=0x02
0000BF2C C2 92              			r1=[r2]
0000BF2D 19 D3 1A 00        			[_rectangle_high]=r1
0000BF2F 41 24              			r2-=0x01
0000BF30 C2 92              			r1=[r2]
0000BF31 19 D3 1B 00        			[_rectangle_wide]=r1
0000BF33 41 24              			r2-=0x01
0000BF34 C2 92              			r1=[r2]
0000BF35 19 D3 19 00        			[_rectangle_jumping_off_y]=r1
0000BF37 41 24              			r2-=0x01
0000BF38 C2 92              			r1=[r2]
0000BF39 19 D3 18 00        			[_rectangle_jumping_off_x]=r1
0000BF3B 11 93 1B 00        			r1=[_rectangle_wide]
0000BF3D 11 23 18 00        			r1-=[_rectangle_jumping_off_x]
0000BF3F 19 D3 1B 00        			[_rectangle_wide]=r1
0000BF41 11 93 1A 00        			r1=[_rectangle_high]
0000BF43 11 23 19 00        			r1-=[_rectangle_jumping_off_y]
0000BF45 19 D3 1A 00        			[_rectangle_high]=r1
0000BF47 12 95 5C 00        			r2=[bp_temp]
0000BF49 41 24              			r2-=0x01
0000BF4A C2 92              			r1=[r2]
0000BF4B 40 42              			cmp r1,0x00
0000BF4C 0A 4E              			jne ClearRect_parameter_five_1
0000BF4D 11 93 5D 00        			r1=[R_GraphicMode_temp]
0000BF4F 12 95 5D 00        			r2=[R_GraphicMode_temp]
0000BF51 09 B3 C7 FF        			r1&=line_mode_bit_clear
0000BF53 48 A2              			r1|=0x0008
0000BF54 19 D3 5D 00        			[R_GraphicMode_temp]=r1
0000BF56 08 EE              			jmp ClearRect_parameter_five_end
                            	ClearRect_parameter_five_1:
0000BF57 11 93 5D 00        			r1=[R_GraphicMode_temp]
0000BF59 12 95 5D 00        			r2=[R_GraphicMode_temp]
0000BF5B 09 B3 C7 FF        			r1&=line_mode_bit_clear
0000BF5D 19 D3 5D 00        			[R_GraphicMode_temp]=r1
                            	ClearRect_parameter_five_end:
0000BF5F 90 9A              			retf
                            	//-----------------------------------------------------
                            	//////////////////////////////////////////////////////////////////////////////1
                            	//Filename : _FG_ClearEllipse
                            	//参数: OriginX, OriginY, RadiusX, RadiusY,Mode
                            	//功能: Clear a ellipse area with 0 or 1.
                            	//Mode: DG_CLEAR_ERASE(default),DG_CLEAR_FILL
                            	//Destroy: AMemory Modified:
                            	//用法:	FG_ClearEllipse(short OriginX,short OriginY,short RadiusX,short RadiusY,short Mode)
                            	//Example:	FG_ClearEllipse(20,20,5,4,DG_CLEAR_ERASE)	
                            	//FG_ClearEllipse(R_Var1,R_Var2,R_Var1,R_Var2,R_Var3,R_Var4)
                            	//////////////////////////////////////////////////////////////////////////////1
                            	.public	_FG_ClearEllipse
                            	_FG_ClearEllipse:
0000BF60 88 DA              			PUSH BP,BP TO [SP]
0000BF61 00 93              			r1=sp
0000BF62 05 95              			r2=bp
0000BF63 1A D5 5C 00        			[bp_temp]=r2
0000BF65 01 25              			r2-=r1
                            	ClearEllipse_four:	
0000BF66 48 44              			cmp	r2,0x08
0000BF67 03 4E              			jne	ClearEllipse_five
0000BF68 40 F0 7A BF        			call	ClearEllipse_parameter_four
0000BF6A 04 EE              			jmp	ClearEllipse
                            	ClearEllipse_five:	
0000BF6B 49 44              			cmp	r2,0x09
0000BF6C 02 4E              			jne	ClearEllipse
0000BF6D 40 F0 96 BF        			call	ClearEllipse_parameter_five
                            	ClearEllipse:	
0000BF6F 40 F0 73 BF        			call	FG_ClearEllipse
0000BF71 88 98              			pop bp from [sp]	
0000BF72 90 9A              			retf
                            	//-----------------------------------------------------
                            	FG_ClearEllipse:	
0000BF73 88 D4              			push r2 to [sp]
0000BF74 40 F0 8B B7        			call	ellipes
0000BF76 88 92              			pop r2 from [sp]
0000BF77 1A D5 5D 00        			[R_GraphicMode_temp]=r2
0000BF79 90 9A              			retf
                            	//-----------------------------------------------------
                            	ClearEllipse_parameter_four:
0000BF7A 12 95 5C 00        			r2=[bp_temp]
0000BF7C 41 24              			r2-=0x01
0000BF7D C2 92              			r1=[r2]
0000BF7E 19 D3 2D 00        			[_ellipse_short_axes]=r1
0000BF80 41 24              			r2-=0x01
0000BF81 C2 92              			r1=[r2]
0000BF82 19 D3 2C 00        			[_ellipse_long_axes]=r1
0000BF84 41 24              			r2-=0x01
0000BF85 C2 92              			r1=[r2]
0000BF86 19 D3 31 00        			[_ellipse_origin_y]=r1
0000BF88 41 24              			r2-=0x01
0000BF89 C2 92              			r1=[r2]
0000BF8A 19 D3 30 00        			[_ellipse_origin_x]=r1
0000BF8C 11 93 5D 00        			r1=[R_GraphicMode_temp]
0000BF8E 12 95 5D 00        			r2=[R_GraphicMode_temp]
0000BF90 09 B3 C7 FF        			r1&=line_mode_bit_clear
0000BF92 48 A2              			r1|=0x0008
0000BF93 19 D3 5D 00        			[R_GraphicMode_temp]=r1
0000BF95 90 9A              			retf
                            	//-----------------------------------------------------
                            	ClearEllipse_parameter_five:
0000BF96 12 95 5C 00        			r2=[bp_temp]
0000BF98 42 24              			r2-=0x02
0000BF99 C2 92              			r1=[r2]
0000BF9A 19 D3 2D 00        			[_ellipse_short_axes]=r1
0000BF9C 41 24              			r2-=0x01
0000BF9D C2 92              			r1=[r2]
0000BF9E 19 D3 2C 00        			[_ellipse_long_axes]=r1
0000BFA0 41 24              			r2-=0x01
0000BFA1 C2 92              			r1=[r2]
0000BFA2 19 D3 31 00        			[_ellipse_origin_y]=r1
0000BFA4 41 24              			r2-=0x01
0000BFA5 C2 92              			r1=[r2]
0000BFA6 19 D3 30 00        			[_ellipse_origin_x]=r1
0000BFA8 12 95 5C 00        			r2=[bp_temp]
0000BFAA 41 24              			r2-=0x01
0000BFAB C2 92              			r1=[r2]
0000BFAC 40 42              			cmp r1,0x00
0000BFAD 0A 4E              			jne ClearEllipse_parameter_five_1
0000BFAE 11 93 5D 00        			r1=[R_GraphicMode_temp]
0000BFB0 12 95 5D 00        			r2=[R_GraphicMode_temp]
0000BFB2 09 B3 C7 FF        			r1&=line_mode_bit_clear
0000BFB4 48 A2              			r1|=0x0008
0000BFB5 19 D3 5D 00        			[R_GraphicMode_temp]=r1
0000BFB7 08 EE              			jmp ClearEllipse_parameter_five_end
                            	ClearEllipse_parameter_five_1:
0000BFB8 11 93 5D 00        			r1=[R_GraphicMode_temp]
0000BFBA 12 95 5D 00        			r2=[R_GraphicMode_temp]
0000BFBC 09 B3 C7 FF        			r1&=line_mode_bit_clear
0000BFBE 19 D3 5D 00        			[R_GraphicMode_temp]=r1
                            	ClearEllipse_parameter_five_end:
0000BFC0 90 9A              			retf
                            	//////////////////////////////////////////////////////////////////////////////15
                            	//Filename : _FG_ClearCircle
                            	//参数: OriginX, OriginY, Radius,Mode
                            	//功能: Clear a circle area with 0 or 1.
                            	//Mode: DG_CLEAR_ERASE(default),DG_CLEAR_FILL
                            	//用法:	FG_ClearCircle(short OriginX,short OriginY,short Radius,short Mode)
                            	//Example:	FG_ClearCircle(20,20,DG_CLEAR_ERASE)
                            	//	FG_ClearCircle(R_Var1,R_Var2)
                            	//////////////////////////////////////////////////////////////////////////////15
                            	.public	_FG_ClearCircle
                            	_FG_ClearCircle:
0000BFC1 88 DA              			PUSH BP,BP TO [SP]
0000BFC2 00 93              			r1=sp
0000BFC3 05 95              			r2=bp
0000BFC4 1A D5 5C 00        			[bp_temp]=r2
0000BFC6 01 25              			r2-=r1
                            	ClearCircle_four:	
0000BFC7 47 44              			cmp	r2,0x07
0000BFC8 03 4E              			jne	ClearCircle_five
0000BFC9 40 F0 DB BF        			call	ClearCircle_parameter_three
0000BFCB 04 EE              			jmp	ClearCircle
                            	ClearCircle_five:	
0000BFCC 48 44              			cmp	r2,0x08
0000BFCD 02 4E              			jne	ClearCircle
0000BFCE 40 F0 F5 BF        			call	ClearCircle_parameter_four
                            	ClearCircle:	
0000BFD0 40 F0 D4 BF        			call	FG_ClearCircle
0000BFD2 88 98              			pop bp from [sp]	
0000BFD3 90 9A              			retf
                            	//-----------------------------------------------------
                            	FG_ClearCircle:	
0000BFD4 88 D4              			push r2 to [sp]
0000BFD5 40 F0 8B B7        			call	ellipes
0000BFD7 88 92              			pop r2 from [sp]
0000BFD8 1A D5 5D 00        			[R_GraphicMode_temp]=r2
0000BFDA 90 9A              			retf
                            	//-----------------------------------------------------
                            	ClearCircle_parameter_three:
0000BFDB 12 95 5C 00        			r2=[bp_temp]
0000BFDD 41 24              			r2-=0x01
0000BFDE C2 92              			r1=[r2]
0000BFDF 19 D3 2D 00        			[_ellipse_short_axes]=r1
0000BFE1 19 D3 2C 00        			[_ellipse_long_axes]=r1
0000BFE3 41 24              			r2-=0x01
0000BFE4 C2 92              			r1=[r2]
0000BFE5 19 D3 31 00        			[_ellipse_origin_y]=r1
0000BFE7 41 24              			r2-=0x01
0000BFE8 C2 92              			r1=[r2]
0000BFE9 19 D3 30 00        			[_ellipse_origin_x]=r1
0000BFEB 11 93 5D 00        			r1=[R_GraphicMode_temp]
0000BFED 12 95 5D 00        			r2=[R_GraphicMode_temp]
0000BFEF 09 B3 C7 FF        			r1&=line_mode_bit_clear
0000BFF1 48 A2              			r1|=0x0008
0000BFF2 19 D3 5D 00        			[R_GraphicMode_temp]=r1
0000BFF4 90 9A              			retf
                            	//-----------------------------------------------------
                            	ClearCircle_parameter_four:
0000BFF5 12 95 5C 00        			r2=[bp_temp]
0000BFF7 42 24              			r2-=0x02
0000BFF8 C2 92              			r1=[r2]
0000BFF9 19 D3 2D 00        			[_ellipse_short_axes]=r1
0000BFFB 19 D3 2C 00        			[_ellipse_long_axes]=r1
0000BFFD 41 24              			r2-=0x01
0000BFFE C2 92              			r1=[r2]
0000BFFF 19 D3 31 00        			[_ellipse_origin_y]=r1
0000C001 41 24              			r2-=0x01
0000C002 C2 92              			r1=[r2]
0000C003 19 D3 30 00        			[_ellipse_origin_x]=r1
0000C005 12 95 5C 00        			r2=[bp_temp]
0000C007 41 24              			r2-=0x01
0000C008 C2 92              			r1=[r2]
0000C009 40 42              			cmp r1,0x00
0000C00A 0A 4E              			jne ClearCircle_parameter_five_1
0000C00B 11 93 5D 00        			r1=[R_GraphicMode_temp]
0000C00D 12 95 5D 00        			r2=[R_GraphicMode_temp]
0000C00F 09 B3 C7 FF        			r1&=line_mode_bit_clear
0000C011 48 A2              			r1|=0x0008
0000C012 19 D3 5D 00        			[R_GraphicMode_temp]=r1
0000C014 08 EE              			jmp ClearCircle_parameter_five_end
                            	ClearCircle_parameter_five_1:
0000C015 11 93 5D 00        			r1=[R_GraphicMode_temp]
0000C017 12 95 5D 00        			r2=[R_GraphicMode_temp]
0000C019 09 B3 C7 FF        			r1&=line_mode_bit_clear
0000C01B 19 D3 5D 00        			[R_GraphicMode_temp]=r1
                            	ClearCircle_parameter_five_end:
0000C01D 90 9A              			retf
                            		
0000C01E 08 00 60 00        		.dw		0x08,0x60
                            	.public  _mode2
                            	_mode2:
                            	
                            	//;Sunnorth code.
                            	//;Written by: Bai-yawei.
                            	//;3.BM_
                            	//;width=64(8byte)		height=96
0000C020 20 C0              	.dw	 _mode2
0000C021 00 00 00 00        	.dw 0x00,0x00,0x00,0x00,0x00,0x01,0xf8,0x00,0x00,0x00,0x00,0x00,0x00,0x06,0x94,0x00
         00 00 00 00
         00 00 01 00
         F8 00 00 00
         00 00 00 00
         00 00 00 00
         00 00 06 00
         94 00 00 00
0000C031 00 00 00 00        	.dw 0x00,0x00,0x00,0x00,0x00,0x08,0xfb,0x00,0x00,0x00,0x00,0x00,0x00,0x09,0x0d,0x00
         00 00 00 00
         00 00 08 00
         FB 00 00 00
         00 00 00 00
         00 00 00 00
         00 00 09 00
         0D 00 00 00
0000C041 00 00 00 00        	.dw 0x00,0x00,0x00,0x00,0x00,0x0a,0x01,0x80,0x00,0x00,0x00,0x00,0x00,0x0c,0x00,0x80
         00 00 00 00
         00 00 0A 00
         01 00 80 00
         00 00 00 00
         00 00 00 00
         00 00 0C 00
         00 00 80 00
0000C051 00 00 00 00        	.dw 0x00,0x00,0x00,0x00,0x00,0x1c,0x00,0x00,0x00,0x00,0x00,0x00,0x00,0x04,0x00,0x00
         00 00 00 00
         00 00 1C 00
         00 00 00 00
         00 00 00 00
         00 00 00 00
         00 00 04 00
         00 00 00 00
0000C061 00 00 00 00        	.dw 0x00,0x00,0x00,0x00,0x00,0x28,0x00,0x00,0x00,0x00,0x00,0x00,0x00,0x68,0x00,0x00
         00 00 00 00
         00 00 28 00
         00 00 00 00
         00 00 00 00
         00 00 00 00
         00 00 68 00
         00 00 00 00
0000C071 00 00 00 00        	.dw 0x00,0x00,0x00,0x00,0x01,0xf0,0x00,0x00,0x00,0x00,0x00,0x00,0x03,0x30,0x00,0x00
         00 00 00 00
         01 00 F0 00
         00 00 00 00
         00 00 00 00
         00 00 00 00
         03 00 30 00
         00 00 00 00
0000C081 00 00 00 00        	.dw 0x00,0x00,0x00,0x00,0x0e,0x30,0x00,0x00,0x00,0x00,0x00,0x00,0x73,0x40,0x00,0x00
         00 00 00 00
         0E 00 30 00
         00 00 00 00
         00 00 00 00
         00 00 00 00
         73 00 40 00
         00 00 00 00
0000C091 00 00 00 00        	.dw 0x00,0x00,0x00,0x01,0x81,0x80,0x00,0x00,0x00,0x00,0x00,0x0e,0x8e,0x00,0x00,0x00
         00 00 01 00
         81 00 80 00
         00 00 00 00
         00 00 00 00
         00 00 0E 00
         8E 00 00 00
         00 00 00 00
0000C0A1 00 00 00 00        	.dw 0x00,0x00,0x00,0x10,0xf0,0x00,0x00,0x00,0x00,0x00,0x00,0x3f,0x00,0x00,0x00,0x00
         00 00 10 00
         F0 00 00 00
         00 00 00 00
         00 00 00 00
         00 00 3F 00
         00 00 00 00
         00 00 00 00
0000C0B1 00 00 00 00        	.dw 0x00,0x00,0x00,0x24,0x00,0x00,0x00,0x00,0x00,0x00,0x00,0x48,0x00,0x00,0x78,0x00
         00 00 24 00
         00 00 00 00
         00 00 00 00
         00 00 00 00
         00 00 48 00
         00 00 00 00
         78 00 00 00
0000C0C1 00 00 00 00        	.dw 0x00,0x00,0x00,0x88,0x00,0x00,0x86,0x00,0x00,0x00,0x00,0xf8,0x00,0x03,0x03,0x00
         00 00 88 00
         00 00 00 00
         86 00 00 00
         00 00 00 00
         00 00 F8 00
         00 00 03 00
         03 00 00 00
0000C0D1 00 00 00 00        	.dw 0x00,0x00,0x00,0x90,0x7f,0xfc,0x00,0x80,0x00,0x00,0x00,0x91,0xc0,0x00,0x00,0xc0
         00 00 90 00
         7F 00 FC 00
         00 00 80 00
         00 00 00 00
         00 00 91 00
         C0 00 00 00
         00 00 C0 00
0000C0E1 00 00 00 00        	.dw 0x00,0x00,0x00,0x96,0x00,0x00,0x00,0x60,0x00,0x00,0x00,0x88,0x00,0x00,0x00,0x10
         00 00 96 00
         00 00 00 00
         00 00 60 00
         00 00 00 00
         00 00 88 00
         00 00 00 00
         00 00 10 00
0000C0F1 00 00 00 00        	.dw 0x00,0x00,0x00,0x90,0x00,0x00,0x00,0x00,0x00,0x00,0x00,0x60,0x00,0x00,0x00,0x08
         00 00 90 00
         00 00 00 00
         00 00 00 00
         00 00 00 00
         00 00 60 00
         00 00 00 00
         00 00 08 00
0000C101 00 00 00 00        	.dw 0x00,0x00,0x00,0xc0,0x00,0x00,0x00,0x04,0x00,0x00,0x00,0x80,0x00,0x00,0x00,0x02
         00 00 C0 00
         00 00 00 00
         00 00 04 00
         00 00 00 00
         00 00 80 00
         00 00 00 00
         00 00 02 00
0000C111 00 00 00 00        	.dw 0x00,0x00,0x00,0x80,0x00,0x00,0x00,0x02,0x00,0x00,0x01,0x00,0x00,0x00,0x00,0x01
         00 00 80 00
         00 00 00 00
         00 00 02 00
         00 00 00 00
         01 00 00 00
         00 00 00 00
         00 00 01 00
0000C121 00 00 00 00        	.dw 0x00,0x00,0x01,0x00,0x00,0x00,0x00,0x01,0x00,0x00,0x02,0x00,0x00,0x00,0x00,0x01
         01 00 00 00
         00 00 00 00
         00 00 01 00
         00 00 00 00
         02 00 00 00
         00 00 00 00
         00 00 01 00
0000C131 00 00 00 00        	.dw 0x00,0x00,0x02,0x00,0x00,0x00,0x03,0xf1,0x00,0x00,0x04,0x00,0x00,0x00,0x04,0x2e
         02 00 00 00
         00 00 00 00
         03 00 F1 00
         00 00 00 00
         04 00 00 00
         00 00 00 00
         04 00 2E 00
0000C141 00 00 00 00        	.dw 0x00,0x00,0x04,0x00,0x00,0x00,0x04,0x10,0x00,0x00,0x04,0x00,0x00,0x00,0x08,0x10
         04 00 00 00
         00 00 00 00
         04 00 10 00
         00 00 00 00
         04 00 00 00
         00 00 00 00
         08 00 10 00
0000C151 00 00 00 00        	.dw 0x00,0x00,0x00,0x00,0x00,0x00,0x08,0x08,0x00,0x3f,0xe0,0x00,0x00,0x00,0x18,0x08
         00 00 00 00
         00 00 00 00
         08 00 08 00
         00 00 3F 00
         E0 00 00 00
         00 00 00 00
         18 00 08 00
0000C161 00 00 C0 00        	.dw 0x00,0xc0,0x18,0x00,0x00,0x00,0x16,0x08,0x01,0x80,0x04,0x00,0x00,0x00,0x21,0x88
         18 00 00 00
         00 00 00 00
         16 00 08 00
         01 00 80 00
         04 00 00 00
         00 00 00 00
         21 00 88 00
0000C171 03 00 00 00        	.dw 0x03,0x00,0x02,0x00,0x00,0x00,0x20,0x70,0x04,0x00,0x01,0x00,0x00,0x00,0xc0,0x00
         02 00 00 00
         00 00 00 00
         20 00 70 00
         04 00 00 00
         01 00 00 00
         00 00 00 00
         C0 00 00 00
0000C181 04 00 0F 00        	.dw 0x04,0x0f,0x81,0x00,0x00,0x03,0x20,0x00,0x08,0x10,0x60,0x00,0x00,0x0c,0x30,0x00
         81 00 00 00
         00 00 03 00
         20 00 00 00
         08 00 10 00
         60 00 00 00
         00 00 0C 00
         30 00 00 00
0000C191 08 00 20 00        	.dw 0x08,0x20,0x30,0x80,0x00,0x00,0x20,0x00,0x08,0x20,0x10,0x80,0x00,0x00,0x20,0x00
         30 00 80 00
         00 00 00 00
         20 00 00 00
         08 00 20 00
         10 00 80 00
         00 00 00 00
         20 00 00 00
0000C1A1 08 00 20 00        	.dw 0x08,0x20,0x08,0x80,0x00,0x00,0x20,0x00,0x08,0x20,0x08,0x5f,0x80,0x00,0x20,0x00
         08 00 80 00
         00 00 00 00
         20 00 00 00
         08 00 20 00
         08 00 5F 00
         80 00 00 00
         20 00 00 00
0000C1B1 08 00 20 00        	.dw 0x08,0x20,0x78,0x00,0xc0,0x00,0x20,0x00,0x08,0x11,0x80,0x00,0x30,0x00,0x20,0x00
         78 00 00 00
         C0 00 00 00
         20 00 00 00
         08 00 11 00
         80 00 00 00
         30 00 00 00
         20 00 00 00
0000C1C1 08 00 1E 00        	.dw 0x08,0x1e,0x00,0x00,0x04,0x28,0x20,0x00,0x04,0x0c,0x00,0x00,0x03,0x40,0x20,0x00
         00 00 00 00
         04 00 28 00
         20 00 00 00
         04 00 0C 00
         00 00 00 00
         03 00 40 00
         20 00 00 00
0000C1D1 04 00 00 00        	.dw 0x04,0x00,0x00,0x06,0x01,0x12,0x20,0x00,0x03,0x00,0x00,0x39,0x80,0xc4,0x20,0x00
         00 00 06 00
         01 00 12 00
         20 00 00 00
         03 00 00 00
         00 00 39 00
         80 00 C4 00
         20 00 00 00
0000C1E1 00 00 E0 00        	.dw 0x00,0xe0,0x00,0x40,0x40,0x68,0x20,0x00,0x00,0x60,0x00,0x80,0x40,0x60,0x20,0x00
         00 00 40 00
         40 00 68 00
         20 00 00 00
         00 00 60 00
         00 00 80 00
         40 00 60 00
         20 00 00 00
0000C1F1 00 00 40 00        	.dw 0x00,0x40,0x00,0xc3,0x20,0xf8,0x20,0x00,0x00,0x80,0x00,0x8f,0xe1,0x04,0x20,0x00
         00 00 C3 00
         20 00 F8 00
         20 00 00 00
         00 00 80 00
         00 00 8F 00
         E1 00 04 00
         20 00 00 00
0000C201 00 00 80 00        	.dw 0x00,0x80,0x00,0x8f,0xe3,0x02,0x20,0x00,0x00,0x80,0x00,0x5e,0x62,0x00,0x30,0x00
         00 00 8F 00
         E3 00 02 00
         20 00 00 00
         00 00 80 00
         00 00 5E 00
         62 00 00 00
         30 00 00 00
0000C211 01 00 00 00        	.dw 0x01,0x00,0x00,0x3f,0xc2,0x01,0x30,0x00,0x01,0x00,0x00,0x0f,0x82,0x01,0x10,0x00
         00 00 3F 00
         C2 00 01 00
         30 00 00 00
         01 00 00 00
         00 00 0F 00
         82 00 01 00
         10 00 00 00
0000C221 01 00 00 00        	.dw 0x01,0x00,0x00,0x00,0x02,0x01,0x10,0x00,0x01,0x00,0x00,0x00,0x02,0x01,0x08,0x00
         00 00 00 00
         02 00 01 00
         10 00 00 00
         01 00 00 00
         00 00 00 00
         02 00 01 00
         08 00 00 00
0000C231 01 00 00 00        	.dw 0x01,0x00,0x00,0x00,0x01,0x02,0x08,0x00,0x01,0x00,0x00,0x00,0x01,0x02,0x04,0x00
         00 00 00 00
         01 00 02 00
         08 00 00 00
         01 00 00 00
         00 00 00 00
         01 00 02 00
         04 00 00 00
0000C241 01 00 00 00        	.dw 0x01,0x00,0x00,0x1f,0x00,0x84,0x04,0x00,0x01,0x00,0x00,0x79,0xc0,0xf8,0x02,0x00
         00 00 1F 00
         00 00 84 00
         04 00 00 00
         01 00 00 00
         00 00 79 00
         C0 00 F8 00
         02 00 00 00
0000C251 00 00 80 00        	.dw 0x00,0x80,0x00,0x9c,0xe0,0x38,0x03,0x00,0x00,0x80,0x00,0x9f,0xe0,0x38,0x01,0x00
         00 00 9C 00
         E0 00 38 00
         03 00 00 00
         00 00 80 00
         00 00 9F 00
         E0 00 38 00
         01 00 00 00
0000C261 00 00 80 00        	.dw 0x00,0x80,0x01,0x0f,0xf0,0x24,0x01,0x00,0x00,0x80,0x00,0x87,0x10,0x59,0x01,0x00
         01 00 0F 00
         F0 00 24 00
         01 00 00 00
         00 00 80 00
         00 00 87 00
         10 00 59 00
         01 00 00 00
0000C271 00 00 40 00        	.dw 0x00,0x40,0x00,0x80,0x20,0x44,0x01,0x00,0x00,0xc0,0x00,0x80,0x20,0x8c,0x00,0x80
         00 00 80 00
         20 00 44 00
         01 00 00 00
         00 00 C0 00
         00 00 80 00
         20 00 8C 00
         00 00 80 00
0000C281 01 00 00 00        	.dw 0x01,0x00,0x00,0x40,0x00,0x02,0x00,0x80,0x02,0x00,0x00,0x30,0xc1,0x02,0x00,0x80
         00 00 40 00
         00 00 02 00
         00 00 80 00
         02 00 00 00
         00 00 30 00
         C1 00 02 00
         00 00 80 00
0000C291 04 00 10 00        	.dw 0x04,0x10,0x00,0x1f,0x02,0x01,0x00,0x80,0x04,0x68,0x00,0x00,0x04,0x01,0x80,0x80
         00 00 1F 00
         02 00 01 00
         00 00 80 00
         04 00 68 00
         00 00 00 00
         04 00 01 00
         80 00 80 00
0000C2A1 08 00 44 00        	.dw 0x08,0x44,0x00,0x00,0x06,0x00,0xc0,0x80,0x08,0x83,0x00,0x00,0x1a,0x00,0x61,0x00
         00 00 00 00
         06 00 00 00
         C0 00 80 00
         08 00 83 00
         00 00 00 00
         1A 00 00 00
         61 00 00 00
0000C2B1 08 00 80 00        	.dw 0x08,0x80,0x80,0x00,0x61,0x00,0x5a,0x00,0x08,0x80,0x60,0x00,0xc0,0x80,0x4c,0x00
         80 00 00 00
         61 00 00 00
         5A 00 00 00
         08 00 80 00
         60 00 00 00
         C0 00 80 00
         4C 00 00 00
0000C2C1 08 00 80 00        	.dw 0x08,0x80,0x18,0x03,0x00,0x80,0x40,0x00,0x08,0x80,0x04,0x1c,0x00,0x60,0x20,0x00
         18 00 03 00
         00 00 80 00
         40 00 00 00
         08 00 80 00
         04 00 1C 00
         00 00 60 00
         20 00 00 00
0000C2D1 08 00 40 00        	.dw 0x08,0x40,0x08,0x30,0x00,0x38,0x20,0x00,0x04,0x40,0x08,0x20,0x00,0x0c,0x20,0x00
         08 00 30 00
         00 00 38 00
         20 00 00 00
         04 00 40 00
         08 00 20 00
         00 00 0C 00
         20 00 00 00
0000C2E1 04 00 30 00        	.dw 0x04,0x30,0x30,0x20,0x00,0x04,0x20,0x00,0x04,0x0f,0xc0,0x40,0x00,0x03,0x20,0x00
         30 00 20 00
         00 00 04 00
         20 00 00 00
         04 00 0F 00
         C0 00 40 00
         00 00 03 00
         20 00 00 00
0000C2F1 02 00 00 00        	.dw 0x02,0x00,0x00,0xc0,0x00,0x00,0xe0,0x00,0x01,0x00,0x01,0x00,0x00,0x00,0x00,0x00
         00 00 C0 00
         00 00 00 00
         E0 00 00 00
         01 00 00 00
         01 00 00 00
         00 00 00 00
         00 00 00 00
0000C301 00 00 80 00        	.dw 0x00,0x80,0x03,0x00,0x00,0x00,0x00,0x00,0x00,0x60,0x04,0x00,0x00,0x00,0x00,0x00
         03 00 00 00
         00 00 00 00
         00 00 00 00
         00 00 60 00
         04 00 00 00
         00 00 00 00
         00 00 00 00
0000C311 00 00 1F 00        	.dw 0x00,0x1f,0xf8,0x00,0x00,0x00,0x00,0x00,0x00,0x00,0x00,0x00,0x00,0x00,0x00,0x00
         F8 00 00 00
         00 00 00 00
         00 00 00 00
         00 00 00 00
         00 00 00 00
         00 00 00 00
         00 00 00 00
0 error(s), 0 warning(s).

